

Microchip MPLAB XC8 Assembler V2.36 build 20220127204148 
                                                                                               Tue Aug 08 16:29:38 2023

Microchip MPLAB XC8 C Compiler v2.36 (Free license) build 20220127204148 Og1 
     1                           	processor	16F1827
     2                           	pagewidth 120
     3                           	opt	flic
     4                           	psect	stringtext1,global,class=STRCODE,delta=2,noexec
     5                           	psect	stringtext2,global,class=STRCODE,delta=2,noexec
     6                           	psect	cinit,global,class=CODE,merge=1,delta=2
     7                           	psect	bssBANK0,global,class=BANK0,space=1,delta=1,noexec
     8                           	psect	bssBANK1,global,class=BANK1,space=1,delta=1,noexec
     9                           	psect	bssBANK2,global,class=BANK2,space=1,delta=1,noexec
    10                           	psect	bssBANK3,global,class=BANK3,space=1,delta=1,noexec
    11                           	psect	bssBANK4,global,class=BANK4,space=1,delta=1,noexec
    12                           	psect	clrtext,global,class=CODE,delta=2
    13                           	psect	cstackBANK1,global,class=BANK1,space=1,delta=1,noexec
    14                           	psect	cstackCOMMON,global,class=COMMON,space=1,delta=1,noexec
    15                           	psect	cstackBANK0,global,class=BANK0,space=1,delta=1,noexec
    16                           	psect	maintext,global,class=CODE,merge=1,split=1,delta=2
    17                           	psect	text1,local,class=CODE,merge=1,delta=2
    18                           	psect	text2,local,class=CODE,merge=1,delta=2
    19                           	psect	text3,local,class=CODE,merge=1,delta=2
    20                           	psect	text4,local,class=CODE,merge=1,delta=2
    21                           	psect	text5,local,class=CODE,merge=1,delta=2
    22                           	psect	text6,local,class=CODE,merge=1,delta=2
    23                           	psect	text7,local,class=CODE,merge=1,delta=2
    24                           	psect	text8,local,class=CODE,merge=1,delta=2
    25                           	psect	text9,local,class=CODE,merge=1,delta=2
    26                           	psect	text10,local,class=CODE,merge=1,delta=2
    27                           	psect	text11,local,class=CODE,merge=1,delta=2
    28                           	psect	text12,local,class=CODE,merge=1,delta=2
    29                           	psect	text13,local,class=CODE,merge=1,delta=2
    30                           	psect	text14,local,class=CODE,merge=1,delta=2
    31                           	psect	text15,local,class=CODE,merge=1,delta=2
    32                           	psect	intentry,global,class=CODE,delta=2
    33                           	psect	text17,local,class=CODE,merge=1,delta=2
    34                           	psect	text18,local,class=CODE,merge=1,delta=2
    35                           	psect	text19,local,class=CODE,merge=1,delta=2
    36                           	psect	text20,local,class=CODE,merge=1,delta=2
    37                           	psect	text21,local,class=CODE,merge=1,delta=2
    38                           	psect	text22,local,class=CODE,merge=1,delta=2
    39                           	psect	text23,local,class=CODE,merge=1,delta=2
    40                           	psect	text24,local,class=CODE,merge=1,delta=2
    41                           	psect	text25,local,class=CODE,merge=1,delta=2
    42                           	psect	text26,local,class=CODE,merge=1,delta=2
    43                           	psect	text27,local,class=CODE,merge=1,delta=2
    44                           	psect	text28,local,class=CODE,merge=1,delta=2
    45                           	psect	text29,local,class=CODE,merge=1,delta=2
    46                           	psect	text30,local,class=CODE,merge=1,delta=2
    47                           	psect	text31,local,class=CODE,merge=1,delta=2
    48                           	psect	text32,local,class=CODE,merge=1,delta=2
    49                           	psect	text33,local,class=CODE,merge=1,delta=2,group=1
    50                           	psect	text34,local,class=CODE,merge=1,delta=2,group=2
    51                           	psect	text35,local,class=CODE,merge=1,delta=2,group=1
    52                           	psect	text36,local,class=CODE,merge=1,delta=2,group=1
    53                           	psect	text37,local,class=CODE,merge=1,delta=2,group=1
    54                           	psect	idloc,global,abs,ovrld,class=IDLOC,space=5,delta=2,noexec
    55                           	psect	config,global,abs,ovrld,class=CONFIG,space=4,delta=2,noexec
    56                           	dabs	1,0x7E,2
    57  0000                     
    58                           ; Version 2.40
    59                           ; Generated 17/11/2021 GMT
    60                           ; 
    61                           ; Copyright © 2021, Microchip Technology Inc. and its subsidiaries ("Microchip")
    62                           ; All rights reserved.
    63                           ; 
    64                           ; This software is developed by Microchip Technology Inc. and its subsidiaries ("Microch
      +                          ip").
    65                           ; 
    66                           ; Redistribution and use in source and binary forms, with or without modification, are
    67                           ; permitted provided that the following conditions are met:
    68                           ; 
    69                           ;     1. Redistributions of source code must retain the above copyright notice, this lis
      +                          t of
    70                           ;        conditions and the following disclaimer.
    71                           ; 
    72                           ;     2. Redistributions in binary form must reproduce the above copyright notice, this 
      +                          list
    73                           ;        of conditions and the following disclaimer in the documentation and/or other
    74                           ;        materials provided with the distribution. Publication is not required when
    75                           ;        this file is used in an embedded application.
    76                           ; 
    77                           ;     3. Microchip's name may not be used to endorse or promote products derived from th
      +                          is
    78                           ;        software without specific prior written permission.
    79                           ; 
    80                           ; THIS SOFTWARE IS PROVIDED BY MICROCHIP "AS IS" AND ANY EXPRESS OR IMPLIED WARRANTIES,
    81                           ; INCLUDING, BUT NOT LIMITED TO, THE IMPLIED WARRANTIES OF MERCHANTABILITY AND FITNESS F
      +                          OR
    82                           ; PURPOSE ARE DISCLAIMED.  IN NO EVENT SHALL MICROCHIP BE LIABLE FOR ANY DIRECT, INDIREC
      +                          T,
    83                           ; INCIDENTAL, SPECIAL, EXEMPLARY, OR CONSEQUENTIAL DAMAGES (INCLUDING BUT NOT LIMITED TO
    84                           ; PROCUREMENT OF SUBSTITUTE GOODS OR SERVICES; LOSS OF USE, DATA OR PROFITS; OR BUSINESS
    85                           ; INTERRUPTION) HOWSOEVER CAUSED AND ON ANY THEORY OF LIABILITY, WHETHER IN CONTRACT, ST
      +                          RICT
    86                           ; LIABILITY, OR TORT (INCLUDING NEGLIGENCE OR OTHERWISE) ARISING IN ANY WAY OUT OF THE U
      +                          SE OF
    87                           ; THIS SOFTWARE, EVEN IF ADVISED OF THE POSSIBILITY OF SUCH DAMAGE.
    88                           ; 
    89                           ; 
    90                           ; Code-generator required, PIC16F1827 Definitions
    91                           ; 
    92                           ; SFR Addresses
    93  0000                     	;# 
    94  0001                     	;# 
    95  0002                     	;# 
    96  0003                     	;# 
    97  0004                     	;# 
    98  0005                     	;# 
    99  0006                     	;# 
   100  0007                     	;# 
   101  0008                     	;# 
   102  0009                     	;# 
   103  000A                     	;# 
   104  000B                     	;# 
   105  000C                     	;# 
   106  000D                     	;# 
   107  0011                     	;# 
   108  0012                     	;# 
   109  0013                     	;# 
   110  0014                     	;# 
   111  0015                     	;# 
   112  0016                     	;# 
   113  0016                     	;# 
   114  0017                     	;# 
   115  0018                     	;# 
   116  0019                     	;# 
   117  001A                     	;# 
   118  001B                     	;# 
   119  001C                     	;# 
   120  001E                     	;# 
   121  001F                     	;# 
   122  008C                     	;# 
   123  008D                     	;# 
   124  0091                     	;# 
   125  0092                     	;# 
   126  0093                     	;# 
   127  0094                     	;# 
   128  0095                     	;# 
   129  0096                     	;# 
   130  0097                     	;# 
   131  0098                     	;# 
   132  0099                     	;# 
   133  009A                     	;# 
   134  009B                     	;# 
   135  009B                     	;# 
   136  009C                     	;# 
   137  009D                     	;# 
   138  009E                     	;# 
   139  010C                     	;# 
   140  010D                     	;# 
   141  0111                     	;# 
   142  0112                     	;# 
   143  0113                     	;# 
   144  0114                     	;# 
   145  0115                     	;# 
   146  0116                     	;# 
   147  0117                     	;# 
   148  0118                     	;# 
   149  0119                     	;# 
   150  011A                     	;# 
   151  011B                     	;# 
   152  011D                     	;# 
   153  011E                     	;# 
   154  018C                     	;# 
   155  018D                     	;# 
   156  0191                     	;# 
   157  0191                     	;# 
   158  0192                     	;# 
   159  0193                     	;# 
   160  0193                     	;# 
   161  0193                     	;# 
   162  0194                     	;# 
   163  0195                     	;# 
   164  0196                     	;# 
   165  0199                     	;# 
   166  019A                     	;# 
   167  019B                     	;# 
   168  019B                     	;# 
   169  019B                     	;# 
   170  019B                     	;# 
   171  019C                     	;# 
   172  019C                     	;# 
   173  019D                     	;# 
   174  019E                     	;# 
   175  019F                     	;# 
   176  020C                     	;# 
   177  020D                     	;# 
   178  0211                     	;# 
   179  0211                     	;# 
   180  0212                     	;# 
   181  0212                     	;# 
   182  0213                     	;# 
   183  0213                     	;# 
   184  0214                     	;# 
   185  0214                     	;# 
   186  0215                     	;# 
   187  0215                     	;# 
   188  0215                     	;# 
   189  0216                     	;# 
   190  0216                     	;# 
   191  0217                     	;# 
   192  0217                     	;# 
   193  0219                     	;# 
   194  021A                     	;# 
   195  021B                     	;# 
   196  021C                     	;# 
   197  021D                     	;# 
   198  021E                     	;# 
   199  021F                     	;# 
   200  0291                     	;# 
   201  0291                     	;# 
   202  0292                     	;# 
   203  0293                     	;# 
   204  0294                     	;# 
   205  0295                     	;# 
   206  0295                     	;# 
   207  0296                     	;# 
   208  0298                     	;# 
   209  0298                     	;# 
   210  0299                     	;# 
   211  029A                     	;# 
   212  029B                     	;# 
   213  029C                     	;# 
   214  029C                     	;# 
   215  029D                     	;# 
   216  029E                     	;# 
   217  029E                     	;# 
   218  0311                     	;# 
   219  0311                     	;# 
   220  0312                     	;# 
   221  0313                     	;# 
   222  0318                     	;# 
   223  0318                     	;# 
   224  0319                     	;# 
   225  031A                     	;# 
   226  0394                     	;# 
   227  0395                     	;# 
   228  0396                     	;# 
   229  039A                     	;# 
   230  039C                     	;# 
   231  039D                     	;# 
   232  039E                     	;# 
   233  039F                     	;# 
   234  0415                     	;# 
   235  0416                     	;# 
   236  0417                     	;# 
   237  041C                     	;# 
   238  041D                     	;# 
   239  041E                     	;# 
   240  0FE4                     	;# 
   241  0FE5                     	;# 
   242  0FE6                     	;# 
   243  0FE7                     	;# 
   244  0FE8                     	;# 
   245  0FE9                     	;# 
   246  0FEA                     	;# 
   247  0FEB                     	;# 
   248  0FED                     	;# 
   249  0FEE                     	;# 
   250  0FEF                     	;# 
   251  0000                     	;# 
   252  0001                     	;# 
   253  0002                     	;# 
   254  0003                     	;# 
   255  0004                     	;# 
   256  0005                     	;# 
   257  0006                     	;# 
   258  0007                     	;# 
   259  0008                     	;# 
   260  0009                     	;# 
   261  000A                     	;# 
   262  000B                     	;# 
   263  000C                     	;# 
   264  000D                     	;# 
   265  0011                     	;# 
   266  0012                     	;# 
   267  0013                     	;# 
   268  0014                     	;# 
   269  0015                     	;# 
   270  0016                     	;# 
   271  0016                     	;# 
   272  0017                     	;# 
   273  0018                     	;# 
   274  0019                     	;# 
   275  001A                     	;# 
   276  001B                     	;# 
   277  001C                     	;# 
   278  001E                     	;# 
   279  001F                     	;# 
   280  008C                     	;# 
   281  008D                     	;# 
   282  0091                     	;# 
   283  0092                     	;# 
   284  0093                     	;# 
   285  0094                     	;# 
   286  0095                     	;# 
   287  0096                     	;# 
   288  0097                     	;# 
   289  0098                     	;# 
   290  0099                     	;# 
   291  009A                     	;# 
   292  009B                     	;# 
   293  009B                     	;# 
   294  009C                     	;# 
   295  009D                     	;# 
   296  009E                     	;# 
   297  010C                     	;# 
   298  010D                     	;# 
   299  0111                     	;# 
   300  0112                     	;# 
   301  0113                     	;# 
   302  0114                     	;# 
   303  0115                     	;# 
   304  0116                     	;# 
   305  0117                     	;# 
   306  0118                     	;# 
   307  0119                     	;# 
   308  011A                     	;# 
   309  011B                     	;# 
   310  011D                     	;# 
   311  011E                     	;# 
   312  018C                     	;# 
   313  018D                     	;# 
   314  0191                     	;# 
   315  0191                     	;# 
   316  0192                     	;# 
   317  0193                     	;# 
   318  0193                     	;# 
   319  0193                     	;# 
   320  0194                     	;# 
   321  0195                     	;# 
   322  0196                     	;# 
   323  0199                     	;# 
   324  019A                     	;# 
   325  019B                     	;# 
   326  019B                     	;# 
   327  019B                     	;# 
   328  019B                     	;# 
   329  019C                     	;# 
   330  019C                     	;# 
   331  019D                     	;# 
   332  019E                     	;# 
   333  019F                     	;# 
   334  020C                     	;# 
   335  020D                     	;# 
   336  0211                     	;# 
   337  0211                     	;# 
   338  0212                     	;# 
   339  0212                     	;# 
   340  0213                     	;# 
   341  0213                     	;# 
   342  0214                     	;# 
   343  0214                     	;# 
   344  0215                     	;# 
   345  0215                     	;# 
   346  0215                     	;# 
   347  0216                     	;# 
   348  0216                     	;# 
   349  0217                     	;# 
   350  0217                     	;# 
   351  0219                     	;# 
   352  021A                     	;# 
   353  021B                     	;# 
   354  021C                     	;# 
   355  021D                     	;# 
   356  021E                     	;# 
   357  021F                     	;# 
   358  0291                     	;# 
   359  0291                     	;# 
   360  0292                     	;# 
   361  0293                     	;# 
   362  0294                     	;# 
   363  0295                     	;# 
   364  0295                     	;# 
   365  0296                     	;# 
   366  0298                     	;# 
   367  0298                     	;# 
   368  0299                     	;# 
   369  029A                     	;# 
   370  029B                     	;# 
   371  029C                     	;# 
   372  029C                     	;# 
   373  029D                     	;# 
   374  029E                     	;# 
   375  029E                     	;# 
   376  0311                     	;# 
   377  0311                     	;# 
   378  0312                     	;# 
   379  0313                     	;# 
   380  0318                     	;# 
   381  0318                     	;# 
   382  0319                     	;# 
   383  031A                     	;# 
   384  0394                     	;# 
   385  0395                     	;# 
   386  0396                     	;# 
   387  039A                     	;# 
   388  039C                     	;# 
   389  039D                     	;# 
   390  039E                     	;# 
   391  039F                     	;# 
   392  0415                     	;# 
   393  0416                     	;# 
   394  0417                     	;# 
   395  041C                     	;# 
   396  041D                     	;# 
   397  041E                     	;# 
   398  0FE4                     	;# 
   399  0FE5                     	;# 
   400  0FE6                     	;# 
   401  0FE7                     	;# 
   402  0FE8                     	;# 
   403  0FE9                     	;# 
   404  0FEA                     	;# 
   405  0FEB                     	;# 
   406  0FED                     	;# 
   407  0FEE                     	;# 
   408  0FEF                     	;# 
   409  0000                     	;# 
   410  0001                     	;# 
   411  0002                     	;# 
   412  0003                     	;# 
   413  0004                     	;# 
   414  0005                     	;# 
   415  0006                     	;# 
   416  0007                     	;# 
   417  0008                     	;# 
   418  0009                     	;# 
   419  000A                     	;# 
   420  000B                     	;# 
   421  000C                     	;# 
   422  000D                     	;# 
   423  0011                     	;# 
   424  0012                     	;# 
   425  0013                     	;# 
   426  0014                     	;# 
   427  0015                     	;# 
   428  0016                     	;# 
   429  0016                     	;# 
   430  0017                     	;# 
   431  0018                     	;# 
   432  0019                     	;# 
   433  001A                     	;# 
   434  001B                     	;# 
   435  001C                     	;# 
   436  001E                     	;# 
   437  001F                     	;# 
   438  008C                     	;# 
   439  008D                     	;# 
   440  0091                     	;# 
   441  0092                     	;# 
   442  0093                     	;# 
   443  0094                     	;# 
   444  0095                     	;# 
   445  0096                     	;# 
   446  0097                     	;# 
   447  0098                     	;# 
   448  0099                     	;# 
   449  009A                     	;# 
   450  009B                     	;# 
   451  009B                     	;# 
   452  009C                     	;# 
   453  009D                     	;# 
   454  009E                     	;# 
   455  010C                     	;# 
   456  010D                     	;# 
   457  0111                     	;# 
   458  0112                     	;# 
   459  0113                     	;# 
   460  0114                     	;# 
   461  0115                     	;# 
   462  0116                     	;# 
   463  0117                     	;# 
   464  0118                     	;# 
   465  0119                     	;# 
   466  011A                     	;# 
   467  011B                     	;# 
   468  011D                     	;# 
   469  011E                     	;# 
   470  018C                     	;# 
   471  018D                     	;# 
   472  0191                     	;# 
   473  0191                     	;# 
   474  0192                     	;# 
   475  0193                     	;# 
   476  0193                     	;# 
   477  0193                     	;# 
   478  0194                     	;# 
   479  0195                     	;# 
   480  0196                     	;# 
   481  0199                     	;# 
   482  019A                     	;# 
   483  019B                     	;# 
   484  019B                     	;# 
   485  019B                     	;# 
   486  019B                     	;# 
   487  019C                     	;# 
   488  019C                     	;# 
   489  019D                     	;# 
   490  019E                     	;# 
   491  019F                     	;# 
   492  020C                     	;# 
   493  020D                     	;# 
   494  0211                     	;# 
   495  0211                     	;# 
   496  0212                     	;# 
   497  0212                     	;# 
   498  0213                     	;# 
   499  0213                     	;# 
   500  0214                     	;# 
   501  0214                     	;# 
   502  0215                     	;# 
   503  0215                     	;# 
   504  0215                     	;# 
   505  0216                     	;# 
   506  0216                     	;# 
   507  0217                     	;# 
   508  0217                     	;# 
   509  0219                     	;# 
   510  021A                     	;# 
   511  021B                     	;# 
   512  021C                     	;# 
   513  021D                     	;# 
   514  021E                     	;# 
   515  021F                     	;# 
   516  0291                     	;# 
   517  0291                     	;# 
   518  0292                     	;# 
   519  0293                     	;# 
   520  0294                     	;# 
   521  0295                     	;# 
   522  0295                     	;# 
   523  0296                     	;# 
   524  0298                     	;# 
   525  0298                     	;# 
   526  0299                     	;# 
   527  029A                     	;# 
   528  029B                     	;# 
   529  029C                     	;# 
   530  029C                     	;# 
   531  029D                     	;# 
   532  029E                     	;# 
   533  029E                     	;# 
   534  0311                     	;# 
   535  0311                     	;# 
   536  0312                     	;# 
   537  0313                     	;# 
   538  0318                     	;# 
   539  0318                     	;# 
   540  0319                     	;# 
   541  031A                     	;# 
   542  0394                     	;# 
   543  0395                     	;# 
   544  0396                     	;# 
   545  039A                     	;# 
   546  039C                     	;# 
   547  039D                     	;# 
   548  039E                     	;# 
   549  039F                     	;# 
   550  0415                     	;# 
   551  0416                     	;# 
   552  0417                     	;# 
   553  041C                     	;# 
   554  041D                     	;# 
   555  041E                     	;# 
   556  0FE4                     	;# 
   557  0FE5                     	;# 
   558  0FE6                     	;# 
   559  0FE7                     	;# 
   560  0FE8                     	;# 
   561  0FE9                     	;# 
   562  0FEA                     	;# 
   563  0FEB                     	;# 
   564  0FED                     	;# 
   565  0FEE                     	;# 
   566  0FEF                     	;# 
   567  0000                     	;# 
   568  0001                     	;# 
   569  0002                     	;# 
   570  0003                     	;# 
   571  0004                     	;# 
   572  0005                     	;# 
   573  0006                     	;# 
   574  0007                     	;# 
   575  0008                     	;# 
   576  0009                     	;# 
   577  000A                     	;# 
   578  000B                     	;# 
   579  000C                     	;# 
   580  000D                     	;# 
   581  0011                     	;# 
   582  0012                     	;# 
   583  0013                     	;# 
   584  0014                     	;# 
   585  0015                     	;# 
   586  0016                     	;# 
   587  0016                     	;# 
   588  0017                     	;# 
   589  0018                     	;# 
   590  0019                     	;# 
   591  001A                     	;# 
   592  001B                     	;# 
   593  001C                     	;# 
   594  001E                     	;# 
   595  001F                     	;# 
   596  008C                     	;# 
   597  008D                     	;# 
   598  0091                     	;# 
   599  0092                     	;# 
   600  0093                     	;# 
   601  0094                     	;# 
   602  0095                     	;# 
   603  0096                     	;# 
   604  0097                     	;# 
   605  0098                     	;# 
   606  0099                     	;# 
   607  009A                     	;# 
   608  009B                     	;# 
   609  009B                     	;# 
   610  009C                     	;# 
   611  009D                     	;# 
   612  009E                     	;# 
   613  010C                     	;# 
   614  010D                     	;# 
   615  0111                     	;# 
   616  0112                     	;# 
   617  0113                     	;# 
   618  0114                     	;# 
   619  0115                     	;# 
   620  0116                     	;# 
   621  0117                     	;# 
   622  0118                     	;# 
   623  0119                     	;# 
   624  011A                     	;# 
   625  011B                     	;# 
   626  011D                     	;# 
   627  011E                     	;# 
   628  018C                     	;# 
   629  018D                     	;# 
   630  0191                     	;# 
   631  0191                     	;# 
   632  0192                     	;# 
   633  0193                     	;# 
   634  0193                     	;# 
   635  0193                     	;# 
   636  0194                     	;# 
   637  0195                     	;# 
   638  0196                     	;# 
   639  0199                     	;# 
   640  019A                     	;# 
   641  019B                     	;# 
   642  019B                     	;# 
   643  019B                     	;# 
   644  019B                     	;# 
   645  019C                     	;# 
   646  019C                     	;# 
   647  019D                     	;# 
   648  019E                     	;# 
   649  019F                     	;# 
   650  020C                     	;# 
   651  020D                     	;# 
   652  0211                     	;# 
   653  0211                     	;# 
   654  0212                     	;# 
   655  0212                     	;# 
   656  0213                     	;# 
   657  0213                     	;# 
   658  0214                     	;# 
   659  0214                     	;# 
   660  0215                     	;# 
   661  0215                     	;# 
   662  0215                     	;# 
   663  0216                     	;# 
   664  0216                     	;# 
   665  0217                     	;# 
   666  0217                     	;# 
   667  0219                     	;# 
   668  021A                     	;# 
   669  021B                     	;# 
   670  021C                     	;# 
   671  021D                     	;# 
   672  021E                     	;# 
   673  021F                     	;# 
   674  0291                     	;# 
   675  0291                     	;# 
   676  0292                     	;# 
   677  0293                     	;# 
   678  0294                     	;# 
   679  0295                     	;# 
   680  0295                     	;# 
   681  0296                     	;# 
   682  0298                     	;# 
   683  0298                     	;# 
   684  0299                     	;# 
   685  029A                     	;# 
   686  029B                     	;# 
   687  029C                     	;# 
   688  029C                     	;# 
   689  029D                     	;# 
   690  029E                     	;# 
   691  029E                     	;# 
   692  0311                     	;# 
   693  0311                     	;# 
   694  0312                     	;# 
   695  0313                     	;# 
   696  0318                     	;# 
   697  0318                     	;# 
   698  0319                     	;# 
   699  031A                     	;# 
   700  0394                     	;# 
   701  0395                     	;# 
   702  0396                     	;# 
   703  039A                     	;# 
   704  039C                     	;# 
   705  039D                     	;# 
   706  039E                     	;# 
   707  039F                     	;# 
   708  0415                     	;# 
   709  0416                     	;# 
   710  0417                     	;# 
   711  041C                     	;# 
   712  041D                     	;# 
   713  041E                     	;# 
   714  0FE4                     	;# 
   715  0FE5                     	;# 
   716  0FE6                     	;# 
   717  0FE7                     	;# 
   718  0FE8                     	;# 
   719  0FE9                     	;# 
   720  0FEA                     	;# 
   721  0FEB                     	;# 
   722  0FED                     	;# 
   723  0FEE                     	;# 
   724  0FEF                     	;# 
   725  0000                     	;# 
   726  0001                     	;# 
   727  0002                     	;# 
   728  0003                     	;# 
   729  0004                     	;# 
   730  0005                     	;# 
   731  0006                     	;# 
   732  0007                     	;# 
   733  0008                     	;# 
   734  0009                     	;# 
   735  000A                     	;# 
   736  000B                     	;# 
   737  000C                     	;# 
   738  000D                     	;# 
   739  0011                     	;# 
   740  0012                     	;# 
   741  0013                     	;# 
   742  0014                     	;# 
   743  0015                     	;# 
   744  0016                     	;# 
   745  0016                     	;# 
   746  0017                     	;# 
   747  0018                     	;# 
   748  0019                     	;# 
   749  001A                     	;# 
   750  001B                     	;# 
   751  001C                     	;# 
   752  001E                     	;# 
   753  001F                     	;# 
   754  008C                     	;# 
   755  008D                     	;# 
   756  0091                     	;# 
   757  0092                     	;# 
   758  0093                     	;# 
   759  0094                     	;# 
   760  0095                     	;# 
   761  0096                     	;# 
   762  0097                     	;# 
   763  0098                     	;# 
   764  0099                     	;# 
   765  009A                     	;# 
   766  009B                     	;# 
   767  009B                     	;# 
   768  009C                     	;# 
   769  009D                     	;# 
   770  009E                     	;# 
   771  010C                     	;# 
   772  010D                     	;# 
   773  0111                     	;# 
   774  0112                     	;# 
   775  0113                     	;# 
   776  0114                     	;# 
   777  0115                     	;# 
   778  0116                     	;# 
   779  0117                     	;# 
   780  0118                     	;# 
   781  0119                     	;# 
   782  011A                     	;# 
   783  011B                     	;# 
   784  011D                     	;# 
   785  011E                     	;# 
   786  018C                     	;# 
   787  018D                     	;# 
   788  0191                     	;# 
   789  0191                     	;# 
   790  0192                     	;# 
   791  0193                     	;# 
   792  0193                     	;# 
   793  0193                     	;# 
   794  0194                     	;# 
   795  0195                     	;# 
   796  0196                     	;# 
   797  0199                     	;# 
   798  019A                     	;# 
   799  019B                     	;# 
   800  019B                     	;# 
   801  019B                     	;# 
   802  019B                     	;# 
   803  019C                     	;# 
   804  019C                     	;# 
   805  019D                     	;# 
   806  019E                     	;# 
   807  019F                     	;# 
   808  020C                     	;# 
   809  020D                     	;# 
   810  0211                     	;# 
   811  0211                     	;# 
   812  0212                     	;# 
   813  0212                     	;# 
   814  0213                     	;# 
   815  0213                     	;# 
   816  0214                     	;# 
   817  0214                     	;# 
   818  0215                     	;# 
   819  0215                     	;# 
   820  0215                     	;# 
   821  0216                     	;# 
   822  0216                     	;# 
   823  0217                     	;# 
   824  0217                     	;# 
   825  0219                     	;# 
   826  021A                     	;# 
   827  021B                     	;# 
   828  021C                     	;# 
   829  021D                     	;# 
   830  021E                     	;# 
   831  021F                     	;# 
   832  0291                     	;# 
   833  0291                     	;# 
   834  0292                     	;# 
   835  0293                     	;# 
   836  0294                     	;# 
   837  0295                     	;# 
   838  0295                     	;# 
   839  0296                     	;# 
   840  0298                     	;# 
   841  0298                     	;# 
   842  0299                     	;# 
   843  029A                     	;# 
   844  029B                     	;# 
   845  029C                     	;# 
   846  029C                     	;# 
   847  029D                     	;# 
   848  029E                     	;# 
   849  029E                     	;# 
   850  0311                     	;# 
   851  0311                     	;# 
   852  0312                     	;# 
   853  0313                     	;# 
   854  0318                     	;# 
   855  0318                     	;# 
   856  0319                     	;# 
   857  031A                     	;# 
   858  0394                     	;# 
   859  0395                     	;# 
   860  0396                     	;# 
   861  039A                     	;# 
   862  039C                     	;# 
   863  039D                     	;# 
   864  039E                     	;# 
   865  039F                     	;# 
   866  0415                     	;# 
   867  0416                     	;# 
   868  0417                     	;# 
   869  041C                     	;# 
   870  041D                     	;# 
   871  041E                     	;# 
   872  0FE4                     	;# 
   873  0FE5                     	;# 
   874  0FE6                     	;# 
   875  0FE7                     	;# 
   876  0FE8                     	;# 
   877  0FE9                     	;# 
   878  0FEA                     	;# 
   879  0FEB                     	;# 
   880  0FED                     	;# 
   881  0FEE                     	;# 
   882  0FEF                     	;# 
   883  0000                     	;# 
   884  0001                     	;# 
   885  0002                     	;# 
   886  0003                     	;# 
   887  0004                     	;# 
   888  0005                     	;# 
   889  0006                     	;# 
   890  0007                     	;# 
   891  0008                     	;# 
   892  0009                     	;# 
   893  000A                     	;# 
   894  000B                     	;# 
   895  000C                     	;# 
   896  000D                     	;# 
   897  0011                     	;# 
   898  0012                     	;# 
   899  0013                     	;# 
   900  0014                     	;# 
   901  0015                     	;# 
   902  0016                     	;# 
   903  0016                     	;# 
   904  0017                     	;# 
   905  0018                     	;# 
   906  0019                     	;# 
   907  001A                     	;# 
   908  001B                     	;# 
   909  001C                     	;# 
   910  001E                     	;# 
   911  001F                     	;# 
   912  008C                     	;# 
   913  008D                     	;# 
   914  0091                     	;# 
   915  0092                     	;# 
   916  0093                     	;# 
   917  0094                     	;# 
   918  0095                     	;# 
   919  0096                     	;# 
   920  0097                     	;# 
   921  0098                     	;# 
   922  0099                     	;# 
   923  009A                     	;# 
   924  009B                     	;# 
   925  009B                     	;# 
   926  009C                     	;# 
   927  009D                     	;# 
   928  009E                     	;# 
   929  010C                     	;# 
   930  010D                     	;# 
   931  0111                     	;# 
   932  0112                     	;# 
   933  0113                     	;# 
   934  0114                     	;# 
   935  0115                     	;# 
   936  0116                     	;# 
   937  0117                     	;# 
   938  0118                     	;# 
   939  0119                     	;# 
   940  011A                     	;# 
   941  011B                     	;# 
   942  011D                     	;# 
   943  011E                     	;# 
   944  018C                     	;# 
   945  018D                     	;# 
   946  0191                     	;# 
   947  0191                     	;# 
   948  0192                     	;# 
   949  0193                     	;# 
   950  0193                     	;# 
   951  0193                     	;# 
   952  0194                     	;# 
   953  0195                     	;# 
   954  0196                     	;# 
   955  0199                     	;# 
   956  019A                     	;# 
   957  019B                     	;# 
   958  019B                     	;# 
   959  019B                     	;# 
   960  019B                     	;# 
   961  019C                     	;# 
   962  019C                     	;# 
   963  019D                     	;# 
   964  019E                     	;# 
   965  019F                     	;# 
   966  020C                     	;# 
   967  020D                     	;# 
   968  0211                     	;# 
   969  0211                     	;# 
   970  0212                     	;# 
   971  0212                     	;# 
   972  0213                     	;# 
   973  0213                     	;# 
   974  0214                     	;# 
   975  0214                     	;# 
   976  0215                     	;# 
   977  0215                     	;# 
   978  0215                     	;# 
   979  0216                     	;# 
   980  0216                     	;# 
   981  0217                     	;# 
   982  0217                     	;# 
   983  0219                     	;# 
   984  021A                     	;# 
   985  021B                     	;# 
   986  021C                     	;# 
   987  021D                     	;# 
   988  021E                     	;# 
   989  021F                     	;# 
   990  0291                     	;# 
   991  0291                     	;# 
   992  0292                     	;# 
   993  0293                     	;# 
   994  0294                     	;# 
   995  0295                     	;# 
   996  0295                     	;# 
   997  0296                     	;# 
   998  0298                     	;# 
   999  0298                     	;# 
  1000  0299                     	;# 
  1001  029A                     	;# 
  1002  029B                     	;# 
  1003  029C                     	;# 
  1004  029C                     	;# 
  1005  029D                     	;# 
  1006  029E                     	;# 
  1007  029E                     	;# 
  1008  0311                     	;# 
  1009  0311                     	;# 
  1010  0312                     	;# 
  1011  0313                     	;# 
  1012  0318                     	;# 
  1013  0318                     	;# 
  1014  0319                     	;# 
  1015  031A                     	;# 
  1016  0394                     	;# 
  1017  0395                     	;# 
  1018  0396                     	;# 
  1019  039A                     	;# 
  1020  039C                     	;# 
  1021  039D                     	;# 
  1022  039E                     	;# 
  1023  039F                     	;# 
  1024  0415                     	;# 
  1025  0416                     	;# 
  1026  0417                     	;# 
  1027  041C                     	;# 
  1028  041D                     	;# 
  1029  041E                     	;# 
  1030  0FE4                     	;# 
  1031  0FE5                     	;# 
  1032  0FE6                     	;# 
  1033  0FE7                     	;# 
  1034  0FE8                     	;# 
  1035  0FE9                     	;# 
  1036  0FEA                     	;# 
  1037  0FEB                     	;# 
  1038  0FED                     	;# 
  1039  0FEE                     	;# 
  1040  0FEF                     	;# 
  1041  0000                     	;# 
  1042  0001                     	;# 
  1043  0002                     	;# 
  1044  0003                     	;# 
  1045  0004                     	;# 
  1046  0005                     	;# 
  1047  0006                     	;# 
  1048  0007                     	;# 
  1049  0008                     	;# 
  1050  0009                     	;# 
  1051  000A                     	;# 
  1052  000B                     	;# 
  1053  000C                     	;# 
  1054  000D                     	;# 
  1055  0011                     	;# 
  1056  0012                     	;# 
  1057  0013                     	;# 
  1058  0014                     	;# 
  1059  0015                     	;# 
  1060  0016                     	;# 
  1061  0016                     	;# 
  1062  0017                     	;# 
  1063  0018                     	;# 
  1064  0019                     	;# 
  1065  001A                     	;# 
  1066  001B                     	;# 
  1067  001C                     	;# 
  1068  001E                     	;# 
  1069  001F                     	;# 
  1070  008C                     	;# 
  1071  008D                     	;# 
  1072  0091                     	;# 
  1073  0092                     	;# 
  1074  0093                     	;# 
  1075  0094                     	;# 
  1076  0095                     	;# 
  1077  0096                     	;# 
  1078  0097                     	;# 
  1079  0098                     	;# 
  1080  0099                     	;# 
  1081  009A                     	;# 
  1082  009B                     	;# 
  1083  009B                     	;# 
  1084  009C                     	;# 
  1085  009D                     	;# 
  1086  009E                     	;# 
  1087  010C                     	;# 
  1088  010D                     	;# 
  1089  0111                     	;# 
  1090  0112                     	;# 
  1091  0113                     	;# 
  1092  0114                     	;# 
  1093  0115                     	;# 
  1094  0116                     	;# 
  1095  0117                     	;# 
  1096  0118                     	;# 
  1097  0119                     	;# 
  1098  011A                     	;# 
  1099  011B                     	;# 
  1100  011D                     	;# 
  1101  011E                     	;# 
  1102  018C                     	;# 
  1103  018D                     	;# 
  1104  0191                     	;# 
  1105  0191                     	;# 
  1106  0192                     	;# 
  1107  0193                     	;# 
  1108  0193                     	;# 
  1109  0193                     	;# 
  1110  0194                     	;# 
  1111  0195                     	;# 
  1112  0196                     	;# 
  1113  0199                     	;# 
  1114  019A                     	;# 
  1115  019B                     	;# 
  1116  019B                     	;# 
  1117  019B                     	;# 
  1118  019B                     	;# 
  1119  019C                     	;# 
  1120  019C                     	;# 
  1121  019D                     	;# 
  1122  019E                     	;# 
  1123  019F                     	;# 
  1124  020C                     	;# 
  1125  020D                     	;# 
  1126  0211                     	;# 
  1127  0211                     	;# 
  1128  0212                     	;# 
  1129  0212                     	;# 
  1130  0213                     	;# 
  1131  0213                     	;# 
  1132  0214                     	;# 
  1133  0214                     	;# 
  1134  0215                     	;# 
  1135  0215                     	;# 
  1136  0215                     	;# 
  1137  0216                     	;# 
  1138  0216                     	;# 
  1139  0217                     	;# 
  1140  0217                     	;# 
  1141  0219                     	;# 
  1142  021A                     	;# 
  1143  021B                     	;# 
  1144  021C                     	;# 
  1145  021D                     	;# 
  1146  021E                     	;# 
  1147  021F                     	;# 
  1148  0291                     	;# 
  1149  0291                     	;# 
  1150  0292                     	;# 
  1151  0293                     	;# 
  1152  0294                     	;# 
  1153  0295                     	;# 
  1154  0295                     	;# 
  1155  0296                     	;# 
  1156  0298                     	;# 
  1157  0298                     	;# 
  1158  0299                     	;# 
  1159  029A                     	;# 
  1160  029B                     	;# 
  1161  029C                     	;# 
  1162  029C                     	;# 
  1163  029D                     	;# 
  1164  029E                     	;# 
  1165  029E                     	;# 
  1166  0311                     	;# 
  1167  0311                     	;# 
  1168  0312                     	;# 
  1169  0313                     	;# 
  1170  0318                     	;# 
  1171  0318                     	;# 
  1172  0319                     	;# 
  1173  031A                     	;# 
  1174  0394                     	;# 
  1175  0395                     	;# 
  1176  0396                     	;# 
  1177  039A                     	;# 
  1178  039C                     	;# 
  1179  039D                     	;# 
  1180  039E                     	;# 
  1181  039F                     	;# 
  1182  0415                     	;# 
  1183  0416                     	;# 
  1184  0417                     	;# 
  1185  041C                     	;# 
  1186  041D                     	;# 
  1187  041E                     	;# 
  1188  0FE4                     	;# 
  1189  0FE5                     	;# 
  1190  0FE6                     	;# 
  1191  0FE7                     	;# 
  1192  0FE8                     	;# 
  1193  0FE9                     	;# 
  1194  0FEA                     	;# 
  1195  0FEB                     	;# 
  1196  0FED                     	;# 
  1197  0FEE                     	;# 
  1198  0FEF                     	;# 
  1199  0000                     	;# 
  1200  0001                     	;# 
  1201  0002                     	;# 
  1202  0003                     	;# 
  1203  0004                     	;# 
  1204  0005                     	;# 
  1205  0006                     	;# 
  1206  0007                     	;# 
  1207  0008                     	;# 
  1208  0009                     	;# 
  1209  000A                     	;# 
  1210  000B                     	;# 
  1211  000C                     	;# 
  1212  000D                     	;# 
  1213  0011                     	;# 
  1214  0012                     	;# 
  1215  0013                     	;# 
  1216  0014                     	;# 
  1217  0015                     	;# 
  1218  0016                     	;# 
  1219  0016                     	;# 
  1220  0017                     	;# 
  1221  0018                     	;# 
  1222  0019                     	;# 
  1223  001A                     	;# 
  1224  001B                     	;# 
  1225  001C                     	;# 
  1226  001E                     	;# 
  1227  001F                     	;# 
  1228  008C                     	;# 
  1229  008D                     	;# 
  1230  0091                     	;# 
  1231  0092                     	;# 
  1232  0093                     	;# 
  1233  0094                     	;# 
  1234  0095                     	;# 
  1235  0096                     	;# 
  1236  0097                     	;# 
  1237  0098                     	;# 
  1238  0099                     	;# 
  1239  009A                     	;# 
  1240  009B                     	;# 
  1241  009B                     	;# 
  1242  009C                     	;# 
  1243  009D                     	;# 
  1244  009E                     	;# 
  1245  010C                     	;# 
  1246  010D                     	;# 
  1247  0111                     	;# 
  1248  0112                     	;# 
  1249  0113                     	;# 
  1250  0114                     	;# 
  1251  0115                     	;# 
  1252  0116                     	;# 
  1253  0117                     	;# 
  1254  0118                     	;# 
  1255  0119                     	;# 
  1256  011A                     	;# 
  1257  011B                     	;# 
  1258  011D                     	;# 
  1259  011E                     	;# 
  1260  018C                     	;# 
  1261  018D                     	;# 
  1262  0191                     	;# 
  1263  0191                     	;# 
  1264  0192                     	;# 
  1265  0193                     	;# 
  1266  0193                     	;# 
  1267  0193                     	;# 
  1268  0194                     	;# 
  1269  0195                     	;# 
  1270  0196                     	;# 
  1271  0199                     	;# 
  1272  019A                     	;# 
  1273  019B                     	;# 
  1274  019B                     	;# 
  1275  019B                     	;# 
  1276  019B                     	;# 
  1277  019C                     	;# 
  1278  019C                     	;# 
  1279  019D                     	;# 
  1280  019E                     	;# 
  1281  019F                     	;# 
  1282  020C                     	;# 
  1283  020D                     	;# 
  1284  0211                     	;# 
  1285  0211                     	;# 
  1286  0212                     	;# 
  1287  0212                     	;# 
  1288  0213                     	;# 
  1289  0213                     	;# 
  1290  0214                     	;# 
  1291  0214                     	;# 
  1292  0215                     	;# 
  1293  0215                     	;# 
  1294  0215                     	;# 
  1295  0216                     	;# 
  1296  0216                     	;# 
  1297  0217                     	;# 
  1298  0217                     	;# 
  1299  0219                     	;# 
  1300  021A                     	;# 
  1301  021B                     	;# 
  1302  021C                     	;# 
  1303  021D                     	;# 
  1304  021E                     	;# 
  1305  021F                     	;# 
  1306  0291                     	;# 
  1307  0291                     	;# 
  1308  0292                     	;# 
  1309  0293                     	;# 
  1310  0294                     	;# 
  1311  0295                     	;# 
  1312  0295                     	;# 
  1313  0296                     	;# 
  1314  0298                     	;# 
  1315  0298                     	;# 
  1316  0299                     	;# 
  1317  029A                     	;# 
  1318  029B                     	;# 
  1319  029C                     	;# 
  1320  029C                     	;# 
  1321  029D                     	;# 
  1322  029E                     	;# 
  1323  029E                     	;# 
  1324  0311                     	;# 
  1325  0311                     	;# 
  1326  0312                     	;# 
  1327  0313                     	;# 
  1328  0318                     	;# 
  1329  0318                     	;# 
  1330  0319                     	;# 
  1331  031A                     	;# 
  1332  0394                     	;# 
  1333  0395                     	;# 
  1334  0396                     	;# 
  1335  039A                     	;# 
  1336  039C                     	;# 
  1337  039D                     	;# 
  1338  039E                     	;# 
  1339  039F                     	;# 
  1340  0415                     	;# 
  1341  0416                     	;# 
  1342  0417                     	;# 
  1343  041C                     	;# 
  1344  041D                     	;# 
  1345  041E                     	;# 
  1346  0FE4                     	;# 
  1347  0FE5                     	;# 
  1348  0FE6                     	;# 
  1349  0FE7                     	;# 
  1350  0FE8                     	;# 
  1351  0FE9                     	;# 
  1352  0FEA                     	;# 
  1353  0FEB                     	;# 
  1354  0FED                     	;# 
  1355  0FEE                     	;# 
  1356  0FEF                     	;# 
  1357  0000                     	;# 
  1358  0001                     	;# 
  1359  0002                     	;# 
  1360  0003                     	;# 
  1361  0004                     	;# 
  1362  0005                     	;# 
  1363  0006                     	;# 
  1364  0007                     	;# 
  1365  0008                     	;# 
  1366  0009                     	;# 
  1367  000A                     	;# 
  1368  000B                     	;# 
  1369  000C                     	;# 
  1370  000D                     	;# 
  1371  0011                     	;# 
  1372  0012                     	;# 
  1373  0013                     	;# 
  1374  0014                     	;# 
  1375  0015                     	;# 
  1376  0016                     	;# 
  1377  0016                     	;# 
  1378  0017                     	;# 
  1379  0018                     	;# 
  1380  0019                     	;# 
  1381  001A                     	;# 
  1382  001B                     	;# 
  1383  001C                     	;# 
  1384  001E                     	;# 
  1385  001F                     	;# 
  1386  008C                     	;# 
  1387  008D                     	;# 
  1388  0091                     	;# 
  1389  0092                     	;# 
  1390  0093                     	;# 
  1391  0094                     	;# 
  1392  0095                     	;# 
  1393  0096                     	;# 
  1394  0097                     	;# 
  1395  0098                     	;# 
  1396  0099                     	;# 
  1397  009A                     	;# 
  1398  009B                     	;# 
  1399  009B                     	;# 
  1400  009C                     	;# 
  1401  009D                     	;# 
  1402  009E                     	;# 
  1403  010C                     	;# 
  1404  010D                     	;# 
  1405  0111                     	;# 
  1406  0112                     	;# 
  1407  0113                     	;# 
  1408  0114                     	;# 
  1409  0115                     	;# 
  1410  0116                     	;# 
  1411  0117                     	;# 
  1412  0118                     	;# 
  1413  0119                     	;# 
  1414  011A                     	;# 
  1415  011B                     	;# 
  1416  011D                     	;# 
  1417  011E                     	;# 
  1418  018C                     	;# 
  1419  018D                     	;# 
  1420  0191                     	;# 
  1421  0191                     	;# 
  1422  0192                     	;# 
  1423  0193                     	;# 
  1424  0193                     	;# 
  1425  0193                     	;# 
  1426  0194                     	;# 
  1427  0195                     	;# 
  1428  0196                     	;# 
  1429  0199                     	;# 
  1430  019A                     	;# 
  1431  019B                     	;# 
  1432  019B                     	;# 
  1433  019B                     	;# 
  1434  019B                     	;# 
  1435  019C                     	;# 
  1436  019C                     	;# 
  1437  019D                     	;# 
  1438  019E                     	;# 
  1439  019F                     	;# 
  1440  020C                     	;# 
  1441  020D                     	;# 
  1442  0211                     	;# 
  1443  0211                     	;# 
  1444  0212                     	;# 
  1445  0212                     	;# 
  1446  0213                     	;# 
  1447  0213                     	;# 
  1448  0214                     	;# 
  1449  0214                     	;# 
  1450  0215                     	;# 
  1451  0215                     	;# 
  1452  0215                     	;# 
  1453  0216                     	;# 
  1454  0216                     	;# 
  1455  0217                     	;# 
  1456  0217                     	;# 
  1457  0219                     	;# 
  1458  021A                     	;# 
  1459  021B                     	;# 
  1460  021C                     	;# 
  1461  021D                     	;# 
  1462  021E                     	;# 
  1463  021F                     	;# 
  1464  0291                     	;# 
  1465  0291                     	;# 
  1466  0292                     	;# 
  1467  0293                     	;# 
  1468  0294                     	;# 
  1469  0295                     	;# 
  1470  0295                     	;# 
  1471  0296                     	;# 
  1472  0298                     	;# 
  1473  0298                     	;# 
  1474  0299                     	;# 
  1475  029A                     	;# 
  1476  029B                     	;# 
  1477  029C                     	;# 
  1478  029C                     	;# 
  1479  029D                     	;# 
  1480  029E                     	;# 
  1481  029E                     	;# 
  1482  0311                     	;# 
  1483  0311                     	;# 
  1484  0312                     	;# 
  1485  0313                     	;# 
  1486  0318                     	;# 
  1487  0318                     	;# 
  1488  0319                     	;# 
  1489  031A                     	;# 
  1490  0394                     	;# 
  1491  0395                     	;# 
  1492  0396                     	;# 
  1493  039A                     	;# 
  1494  039C                     	;# 
  1495  039D                     	;# 
  1496  039E                     	;# 
  1497  039F                     	;# 
  1498  0415                     	;# 
  1499  0416                     	;# 
  1500  0417                     	;# 
  1501  041C                     	;# 
  1502  041D                     	;# 
  1503  041E                     	;# 
  1504  0FE4                     	;# 
  1505  0FE5                     	;# 
  1506  0FE6                     	;# 
  1507  0FE7                     	;# 
  1508  0FE8                     	;# 
  1509  0FE9                     	;# 
  1510  0FEA                     	;# 
  1511  0FEB                     	;# 
  1512  0FED                     	;# 
  1513  0FEE                     	;# 
  1514  0FEF                     	;# 
  1515  0000                     	;# 
  1516  0001                     	;# 
  1517  0002                     	;# 
  1518  0003                     	;# 
  1519  0004                     	;# 
  1520  0005                     	;# 
  1521  0006                     	;# 
  1522  0007                     	;# 
  1523  0008                     	;# 
  1524  0009                     	;# 
  1525  000A                     	;# 
  1526  000B                     	;# 
  1527  000C                     	;# 
  1528  000D                     	;# 
  1529  0011                     	;# 
  1530  0012                     	;# 
  1531  0013                     	;# 
  1532  0014                     	;# 
  1533  0015                     	;# 
  1534  0016                     	;# 
  1535  0016                     	;# 
  1536  0017                     	;# 
  1537  0018                     	;# 
  1538  0019                     	;# 
  1539  001A                     	;# 
  1540  001B                     	;# 
  1541  001C                     	;# 
  1542  001E                     	;# 
  1543  001F                     	;# 
  1544  008C                     	;# 
  1545  008D                     	;# 
  1546  0091                     	;# 
  1547  0092                     	;# 
  1548  0093                     	;# 
  1549  0094                     	;# 
  1550  0095                     	;# 
  1551  0096                     	;# 
  1552  0097                     	;# 
  1553  0098                     	;# 
  1554  0099                     	;# 
  1555  009A                     	;# 
  1556  009B                     	;# 
  1557  009B                     	;# 
  1558  009C                     	;# 
  1559  009D                     	;# 
  1560  009E                     	;# 
  1561  010C                     	;# 
  1562  010D                     	;# 
  1563  0111                     	;# 
  1564  0112                     	;# 
  1565  0113                     	;# 
  1566  0114                     	;# 
  1567  0115                     	;# 
  1568  0116                     	;# 
  1569  0117                     	;# 
  1570  0118                     	;# 
  1571  0119                     	;# 
  1572  011A                     	;# 
  1573  011B                     	;# 
  1574  011D                     	;# 
  1575  011E                     	;# 
  1576  018C                     	;# 
  1577  018D                     	;# 
  1578  0191                     	;# 
  1579  0191                     	;# 
  1580  0192                     	;# 
  1581  0193                     	;# 
  1582  0193                     	;# 
  1583  0193                     	;# 
  1584  0194                     	;# 
  1585  0195                     	;# 
  1586  0196                     	;# 
  1587  0199                     	;# 
  1588  019A                     	;# 
  1589  019B                     	;# 
  1590  019B                     	;# 
  1591  019B                     	;# 
  1592  019B                     	;# 
  1593  019C                     	;# 
  1594  019C                     	;# 
  1595  019D                     	;# 
  1596  019E                     	;# 
  1597  019F                     	;# 
  1598  020C                     	;# 
  1599  020D                     	;# 
  1600  0211                     	;# 
  1601  0211                     	;# 
  1602  0212                     	;# 
  1603  0212                     	;# 
  1604  0213                     	;# 
  1605  0213                     	;# 
  1606  0214                     	;# 
  1607  0214                     	;# 
  1608  0215                     	;# 
  1609  0215                     	;# 
  1610  0215                     	;# 
  1611  0216                     	;# 
  1612  0216                     	;# 
  1613  0217                     	;# 
  1614  0217                     	;# 
  1615  0219                     	;# 
  1616  021A                     	;# 
  1617  021B                     	;# 
  1618  021C                     	;# 
  1619  021D                     	;# 
  1620  021E                     	;# 
  1621  021F                     	;# 
  1622  0291                     	;# 
  1623  0291                     	;# 
  1624  0292                     	;# 
  1625  0293                     	;# 
  1626  0294                     	;# 
  1627  0295                     	;# 
  1628  0295                     	;# 
  1629  0296                     	;# 
  1630  0298                     	;# 
  1631  0298                     	;# 
  1632  0299                     	;# 
  1633  029A                     	;# 
  1634  029B                     	;# 
  1635  029C                     	;# 
  1636  029C                     	;# 
  1637  029D                     	;# 
  1638  029E                     	;# 
  1639  029E                     	;# 
  1640  0311                     	;# 
  1641  0311                     	;# 
  1642  0312                     	;# 
  1643  0313                     	;# 
  1644  0318                     	;# 
  1645  0318                     	;# 
  1646  0319                     	;# 
  1647  031A                     	;# 
  1648  0394                     	;# 
  1649  0395                     	;# 
  1650  0396                     	;# 
  1651  039A                     	;# 
  1652  039C                     	;# 
  1653  039D                     	;# 
  1654  039E                     	;# 
  1655  039F                     	;# 
  1656  0415                     	;# 
  1657  0416                     	;# 
  1658  0417                     	;# 
  1659  041C                     	;# 
  1660  041D                     	;# 
  1661  041E                     	;# 
  1662  0FE4                     	;# 
  1663  0FE5                     	;# 
  1664  0FE6                     	;# 
  1665  0FE7                     	;# 
  1666  0FE8                     	;# 
  1667  0FE9                     	;# 
  1668  0FEA                     	;# 
  1669  0FEB                     	;# 
  1670  0FED                     	;# 
  1671  0FEE                     	;# 
  1672  0FEF                     	;# 
  1673  000D                     _PORTB	set	13
  1674  000C                     _PORTA	set	12
  1675  001C                     _T2CONbits	set	28
  1676  001B                     _PR2	set	27
  1677  000B                     _INTCONbits	set	11
  1678  009B                     _ADRESL	set	155
  1679  009C                     _ADRESH	set	156
  1680  009D                     _ADCON0bits	set	157
  1681  008D                     _TRISB	set	141
  1682  008C                     _TRISA	set	140
  1683  009E                     _ADCON1	set	158
  1684  009D                     _ADCON0	set	157
  1685  0095                     _OPTION_REG	set	149
  1686  0095                     _OPTION_REGbits	set	149
  1687  0091                     _PIE1bits	set	145
  1688  0099                     _OSCCONbits	set	153
  1689  010D                     _LATB	set	269
  1690  010C                     _LATA	set	268
  1691  011D                     _APFCON0bits	set	285
  1692  018D                     _ANSELB	set	397
  1693  018C                     _ANSELA	set	396
  1694  0293                     _CCP1CONbits	set	659
  1695  0296                     _PSTR1CONbits	set	662
  1696  0291                     _CCPR1L	set	657
  1697  0293                     _CCP1CON	set	659
  1698                           
  1699                           	psect	stringtext1
  1700  07FE                     __pstringtext1:
  1701  07FE                     STR_1:
  1702  07FE  3428               	retlw	40	;'('
  1703  07FF  3428               	retlw	40	;'('
  1704  0800  3449               	retlw	73	;'I'
  1705  0801  344E               	retlw	78	;'N'
  1706  0802  3454               	retlw	84	;'T'
  1707  0803  3443               	retlw	67	;'C'
  1708  0804  344F               	retlw	79	;'O'
  1709  0805  344E               	retlw	78	;'N'
  1710  0806  3429               	retlw	41	;')'
  1711  0807  3426               	retlw	38	;'&'
  1712  0808  3430               	retlw	48	;'0'
  1713  0809  3437               	retlw	55	;'7'
  1714  080A  3446               	retlw	70	;'F'
  1715  080B  3468               	retlw	104	;'h'
  1716  080C  3429               	retlw	41	;')'
  1717  080D  342C               	retlw	44	;','
  1718  080E  3432               	retlw	50	;'2'
  1719  080F  3400               	retlw	0
  1720                           
  1721                           	psect	stringtext2
  1722  0000                     __pstringtext2:
  1723  07FE                     
  1724                           	psect	cinit
  1725  0088                     start_initialization:	
  1726                           ; #config settings
  1727                           
  1728  0088                     __initialization:
  1729                           
  1730                           ; Clear objects allocated to BANK0
  1731  0088  305F               	movlw	low __pbssBANK0
  1732  0089  0084               	movwf	4
  1733  008A  3000               	movlw	high __pbssBANK0
  1734  008B  0085               	movwf	5
  1735  008C  3010               	movlw	16
  1736  008D  318B  23E6  3180   	fcall	clear_ram0
  1737                           
  1738                           ; Clear objects allocated to BANK1
  1739  0090  30A0               	movlw	low __pbssBANK1
  1740  0091  0084               	movwf	4
  1741  0092  3000               	movlw	high __pbssBANK1
  1742  0093  0085               	movwf	5
  1743  0094  3032               	movlw	50
  1744  0095  318B  23E6  3180   	fcall	clear_ram0
  1745                           
  1746                           ; Clear objects allocated to BANK2
  1747  0098  3020               	movlw	low __pbssBANK2
  1748  0099  0084               	movwf	4
  1749  009A  3001               	movlw	high __pbssBANK2
  1750  009B  0085               	movwf	5
  1751  009C  3040               	movlw	64
  1752  009D  318B  23E6  3180   	fcall	clear_ram0
  1753                           
  1754                           ; Clear objects allocated to BANK3
  1755  00A0  30A0               	movlw	low __pbssBANK3
  1756  00A1  0084               	movwf	4
  1757  00A2  3001               	movlw	high __pbssBANK3
  1758  00A3  0085               	movwf	5
  1759  00A4  3040               	movlw	64
  1760  00A5  318B  23E6  3180   	fcall	clear_ram0
  1761                           
  1762                           ; Clear objects allocated to BANK4
  1763  00A8  3020               	movlw	low __pbssBANK4
  1764  00A9  0084               	movwf	4
  1765  00AA  3002               	movlw	high __pbssBANK4
  1766  00AB  0085               	movwf	5
  1767  00AC  3020               	movlw	32
  1768  00AD  318B  23E6  3180   	fcall	clear_ram0
  1769  00B0                     end_of_initialization:	
  1770                           ;End of C runtime variable initialization code
  1771                           
  1772  00B0                     __end_of__initialization:
  1773  00B0  107E               	bcf	int$flags,0	;clear compiler interrupt flag (level 1)
  1774  00B1  0020               	movlb	0
  1775  00B2  318D  2D4B         	ljmp	_main	;jump to C main() function
  1776                           
  1777                           	psect	bssBANK0
  1778  005F                     __pbssBANK0:
  1779  005F                     _filteredVout:
  1780  005F                     	ds	2
  1781  0061                     _latestIL:
  1782  0061                     	ds	2
  1783  0063                     _setDuty:
  1784  0063                     	ds	2
  1785  0065                     _slotTest:
  1786  0065                     	ds	1
  1787  0066                     _timerSlotQuarter:
  1788  0066                     	ds	1
  1789  0067                     _timerSlotHalf:
  1790  0067                     	ds	1
  1791  0068                     _potSetCount:
  1792  0068                     	ds	1
  1793  0069                     _currentTripCount:
  1794  0069                     	ds	1
  1795  006A                     _tripIL:
  1796  006A                     	ds	1
  1797  006B                     _tripIDS:
  1798  006B                     	ds	1
  1799  006C                     _currentState:
  1800  006C                     	ds	1
  1801  006D                     _prevPeriod:
  1802  006D                     	ds	1
  1803  006E                     _setPeriod:
  1804  006E                     	ds	1
  1805                           
  1806                           	psect	bssBANK1
  1807  00A0                     __pbssBANK1:
  1808  00A0                     _integratorScaledLimit:
  1809  00A0                     	ds	8
  1810  00A8                     _clockFrequency:
  1811  00A8                     	ds	4
  1812  00AC                     _filteredDutyPot:
  1813  00AC                     	ds	2
  1814  00AE                     _filteredFreqPot:
  1815  00AE                     	ds	2
  1816  00B0                     _filteredIL:
  1817  00B0                     	ds	2
  1818  00B2                     _filteredIDS:
  1819  00B2                     	ds	2
  1820  00B4                     _prevDuty:
  1821  00B4                     	ds	2
  1822  00B6                     _voltageModeVariables:
  1823  00B6                     	ds	28
  1824                           
  1825                           	psect	bssBANK2
  1826  0120                     __pbssBANK2:
  1827  0120                     _currentILFIFO:
  1828  0120                     	ds	32
  1829  0140                     _currentIDSFIFO:
  1830  0140                     	ds	32
  1831                           
  1832                           	psect	bssBANK3
  1833  01A0                     __pbssBANK3:
  1834  01A0                     _freqPotFIFO:
  1835  01A0                     	ds	32
  1836  01C0                     _voutFIFO:
  1837  01C0                     	ds	32
  1838                           
  1839                           	psect	bssBANK4
  1840  0220                     __pbssBANK4:
  1841  0220                     _dutyPotFIFO:
  1842  0220                     	ds	32
  1843                           
  1844                           	psect	clrtext
  1845  0BE6                     clear_ram0:	
  1846                           ;	Called with FSR0 containing the base address, and
  1847                           ;	WREG with the size to clear
  1848                           
  1849  0BE6  0064               	clrwdt	;clear the watchdog before getting into this loop
  1850  0BE7                     clrloop0:
  1851  0BE7  0180               	clrf	0	;clear RAM location pointed to by FSR
  1852  0BE8  3101               	addfsr 0,1
  1853  0BE9  0B89               	decfsz	9,f	;Have we reached the end of clearing yet?
  1854  0BEA  2BE7               	goto	clrloop0	;have we reached the end yet?
  1855  0BEB  3400               	retlw	0	;all done for this memory range, return
  1856                           
  1857                           	psect	cstackBANK1
  1858  00D2                     __pcstackBANK1:
  1859  00D2                     ?_writeGPIO:
  1860  00D2                     ??_setupInternalOscillator:	
  1861                           ; 1 bytes @ 0x0
  1862                           
  1863  00D2                     ??_setupTimer0Interrupt:	
  1864                           ; 1 bytes @ 0x0
  1865                           
  1866  00D2                     ??_initialiseADCModule:	
  1867                           ; 1 bytes @ 0x0
  1868                           
  1869  00D2                     ?_initialiseGPIO:	
  1870                           ; 1 bytes @ 0x0
  1871                           
  1872  00D2                     ??_readGPIO:	
  1873                           ; 1 bytes @ 0x0
  1874                           
  1875  00D2                     ??_transToVoltageModeControl:	
  1876                           ; 1 bytes @ 0x0
  1877                           
  1878  00D2                     ??_transToCurrentModeControl:	
  1879                           ; 1 bytes @ 0x0
  1880                           
  1881  00D2                     ??_transToPotControl:	
  1882                           ; 1 bytes @ 0x0
  1883                           
  1884  00D2                     ??_initialiseADCPin:	
  1885                           ; 1 bytes @ 0x0
  1886                           
  1887  00D2                     initialiseGPIO@direction:	
  1888                           ; 1 bytes @ 0x0
  1889                           
  1890  00D2                     writeGPIO@writeValue:	
  1891                           ; 1 bytes @ 0x0
  1892                           
  1893                           
  1894                           ; 1 bytes @ 0x0
  1895  00D2                     	ds	1
  1896  00D3                     ??_writeGPIO:
  1897  00D3                     ??_initialiseGPIO:	
  1898                           ; 1 bytes @ 0x1
  1899                           
  1900                           
  1901                           ; 1 bytes @ 0x1
  1902  00D3                     	ds	1
  1903  00D4                     setupInternalOscillator@selectedFreq:
  1904  00D4                     initialiseADCPin@gpioValid:	
  1905                           ; 1 bytes @ 0x2
  1906                           
  1907  00D4                     readGPIO@readA:	
  1908                           ; 1 bytes @ 0x2
  1909                           
  1910                           
  1911                           ; 1 bytes @ 0x2
  1912  00D4                     	ds	1
  1913  00D5                     initialiseADCPin@portType:
  1914  00D5                     initialiseGPIO@portType:	
  1915                           ; 1 bytes @ 0x3
  1916                           
  1917  00D5                     writeGPIO@portType:	
  1918                           ; 1 bytes @ 0x3
  1919                           
  1920  00D5                     readGPIO@returnValueA:	
  1921                           ; 1 bytes @ 0x3
  1922                           
  1923                           
  1924                           ; 1 bytes @ 0x3
  1925  00D5                     	ds	1
  1926  00D6                     initialiseADCPin@portNumber:
  1927  00D6                     initialiseGPIO@gpioNumber:	
  1928                           ; 1 bytes @ 0x4
  1929                           
  1930  00D6                     writeGPIO@gpioNumber:	
  1931                           ; 1 bytes @ 0x4
  1932                           
  1933  00D6                     readGPIO@readB:	
  1934                           ; 1 bytes @ 0x4
  1935                           
  1936                           
  1937                           ; 1 bytes @ 0x4
  1938  00D6                     	ds	1
  1939  00D7                     initialiseADCPin@gpioNumber:
  1940  00D7                     initialiseGPIO@portNumber:	
  1941                           ; 1 bytes @ 0x5
  1942                           
  1943  00D7                     writeGPIO@portNumber:	
  1944                           ; 1 bytes @ 0x5
  1945                           
  1946  00D7                     readGPIO@returnValueB:	
  1947                           ; 1 bytes @ 0x5
  1948                           
  1949                           
  1950                           ; 1 bytes @ 0x5
  1951  00D7                     	ds	1
  1952  00D8                     ??_setupPWM:
  1953  00D8                     ??_initialiseCurrentSensors:	
  1954                           ; 1 bytes @ 0x6
  1955                           
  1956  00D8                     ??_initialisePotentiometers:	
  1957                           ; 1 bytes @ 0x6
  1958                           
  1959  00D8                     ??_initialiseController:	
  1960                           ; 1 bytes @ 0x6
  1961                           
  1962  00D8                     ??_currentTripReset:	
  1963                           ; 1 bytes @ 0x6
  1964                           
  1965  00D8                     readGPIO@portNumber:	
  1966                           ; 1 bytes @ 0x6
  1967                           
  1968                           
  1969                           ; 1 bytes @ 0x6
  1970  00D8                     	ds	1
  1971  00D9                     readGPIO@portType:
  1972                           
  1973                           ; 1 bytes @ 0x7
  1974  00D9                     	ds	1
  1975  00DA                     readGPIO@gpioNumber:
  1976                           
  1977                           ; 1 bytes @ 0x8
  1978  00DA                     	ds	1
  1979  00DB                     ?_main:
  1980  00DB                     main@argc:	
  1981                           ; 2 bytes @ 0x9
  1982                           
  1983                           
  1984                           ; 2 bytes @ 0x9
  1985  00DB                     	ds	2
  1986  00DD                     main@argv:
  1987                           
  1988                           ; 2 bytes @ 0xB
  1989  00DD                     	ds	2
  1990  00DF                     ??_main:
  1991                           
  1992                           	psect	cstackCOMMON
  1993  0070                     __pcstackCOMMON:	
  1994                           ; 1 bytes @ 0xD
  1995                           
  1996  0070                     ?_setPWMDutyandPeriod:
  1997  0070                     ?_controlRoutine:	
  1998                           ; 1 bytes @ 0x0
  1999                           
  2000  0070                     ?_runPotScaling:	
  2001                           ; 1 bytes @ 0x0
  2002                           
  2003  0070                     ?_setupInternalOscillator:	
  2004                           ; 1 bytes @ 0x0
  2005                           
  2006  0070                     ?_setupPWM:	
  2007                           ; 1 bytes @ 0x0
  2008                           
  2009  0070                     ?_setupTimer0Interrupt:	
  2010                           ; 1 bytes @ 0x0
  2011                           
  2012  0070                     ?_initialiseADCModule:	
  2013                           ; 1 bytes @ 0x0
  2014                           
  2015  0070                     ?_initialiseCurrentSensors:	
  2016                           ; 1 bytes @ 0x0
  2017                           
  2018  0070                     ?_initialisePotentiometers:	
  2019                           ; 1 bytes @ 0x0
  2020                           
  2021  0070                     ?_initialiseController:	
  2022                           ; 1 bytes @ 0x0
  2023                           
  2024  0070                     ?_readGPIO:	
  2025                           ; 1 bytes @ 0x0
  2026                           
  2027  0070                     ?_transToVoltageModeControl:	
  2028                           ; 1 bytes @ 0x0
  2029                           
  2030  0070                     ?_transToCurrentModeControl:	
  2031                           ; 1 bytes @ 0x0
  2032                           
  2033  0070                     ?_transToPotControl:	
  2034                           ; 1 bytes @ 0x0
  2035                           
  2036  0070                     ?_runVoltageModeControl:	
  2037                           ; 1 bytes @ 0x0
  2038                           
  2039  0070                     ?_currentTripReset:	
  2040                           ; 1 bytes @ 0x0
  2041                           
  2042  0070                     ?_transToOverCurrentFault:	
  2043                           ; 1 bytes @ 0x0
  2044                           
  2045  0070                     ??_transToOverCurrentFault:	
  2046                           ; 1 bytes @ 0x0
  2047                           
  2048  0070                     ?_Tick490Hz:	
  2049                           ; 1 bytes @ 0x0
  2050                           
  2051  0070                     ?_initialiseADCPin:	
  2052                           ; 1 bytes @ 0x0
  2053                           
  2054  0070                     ?_currentTripRead:	
  2055                           ; 1 bytes @ 0x0
  2056                           
  2057  0070                     ??___omul:	
  2058                           ; 1 bytes @ 0x0
  2059                           
  2060  0070                     ?i1_writeGPIO:	
  2061                           ; 1 bytes @ 0x0
  2062                           
  2063  0070                     ?i1_readGPIO:	
  2064                           ; 1 bytes @ 0x0
  2065                           
  2066  0070                     ??i1_readGPIO:	
  2067                           ; 1 bytes @ 0x0
  2068                           
  2069  0070                     ?i1_currentTripReset:	
  2070                           ; 1 bytes @ 0x0
  2071                           
  2072  0070                     ?_currentTripMonitor:	
  2073                           ; 1 bytes @ 0x0
  2074                           
  2075  0070                     ?_readFilteredIL:	
  2076                           ; 2 bytes @ 0x0
  2077                           
  2078  0070                     ?_abs:	
  2079                           ; 2 bytes @ 0x0
  2080                           
  2081  0070                     ?_readADCRaw:	
  2082                           ; 2 bytes @ 0x0
  2083                           
  2084  0070                     ?___wmul:	
  2085                           ; 2 bytes @ 0x0
  2086                           
  2087  0070                     ?___lmul:	
  2088                           ; 2 bytes @ 0x0
  2089                           
  2090  0070                     i1writeGPIO@writeValue:	
  2091                           ; 4 bytes @ 0x0
  2092                           
  2093  0070                     setPWMDutyandPeriod@dutyCycle:	
  2094                           ; 1 bytes @ 0x0
  2095                           
  2096  0070                     ___wmul@multiplier:	
  2097                           ; 2 bytes @ 0x0
  2098                           
  2099  0070                     abs@a:	
  2100                           ; 2 bytes @ 0x0
  2101                           
  2102  0070                     ___lmul@multiplier:	
  2103                           ; 2 bytes @ 0x0
  2104                           
  2105                           
  2106                           ; 4 bytes @ 0x0
  2107  0070                     	ds	1
  2108  0071                     ??i1_writeGPIO:
  2109  0071                     ___omul@product:	
  2110                           ; 1 bytes @ 0x1
  2111                           
  2112                           
  2113                           ; 8 bytes @ 0x1
  2114  0071                     	ds	1
  2115  0072                     ??_readFilteredIL:
  2116  0072                     ??_abs:	
  2117                           ; 1 bytes @ 0x2
  2118                           
  2119  0072                     ??_readADCRaw:	
  2120                           ; 1 bytes @ 0x2
  2121                           
  2122  0072                     setPWMDutyandPeriod@period:	
  2123                           ; 1 bytes @ 0x2
  2124                           
  2125  0072                     i1readGPIO@readA:	
  2126                           ; 1 bytes @ 0x2
  2127                           
  2128  0072                     ___wmul@multiplicand:	
  2129                           ; 1 bytes @ 0x2
  2130                           
  2131                           
  2132                           ; 2 bytes @ 0x2
  2133  0072                     	ds	1
  2134  0073                     ??_setPWMDutyandPeriod:
  2135  0073                     i1writeGPIO@portType:	
  2136                           ; 1 bytes @ 0x3
  2137                           
  2138  0073                     i1readGPIO@returnValueA:	
  2139                           ; 1 bytes @ 0x3
  2140                           
  2141                           
  2142                           ; 1 bytes @ 0x3
  2143  0073                     	ds	1
  2144  0074                     ??___wmul:
  2145  0074                     i1writeGPIO@gpioNumber:	
  2146                           ; 1 bytes @ 0x4
  2147                           
  2148  0074                     i1readGPIO@readB:	
  2149                           ; 1 bytes @ 0x4
  2150                           
  2151  0074                     readADCRaw@returnValue:	
  2152                           ; 1 bytes @ 0x4
  2153                           
  2154  0074                     ___wmul@product:	
  2155                           ; 2 bytes @ 0x4
  2156                           
  2157  0074                     ___lmul@multiplicand:	
  2158                           ; 2 bytes @ 0x4
  2159                           
  2160                           
  2161                           ; 4 bytes @ 0x4
  2162  0074                     	ds	1
  2163  0075                     i1writeGPIO@portNumber:
  2164  0075                     i1readGPIO@returnValueB:	
  2165                           ; 1 bytes @ 0x5
  2166                           
  2167                           
  2168                           ; 1 bytes @ 0x5
  2169  0075                     	ds	1
  2170  0076                     ??i1_currentTripReset:
  2171  0076                     ?___lldiv:	
  2172                           ; 1 bytes @ 0x6
  2173                           
  2174  0076                     readADCRaw@channel:	
  2175                           ; 4 bytes @ 0x6
  2176                           
  2177  0076                     i1readGPIO@portNumber:	
  2178                           ; 1 bytes @ 0x6
  2179                           
  2180  0076                     readFilteredIL@sumOfSamples:	
  2181                           ; 1 bytes @ 0x6
  2182                           
  2183  0076                     ___lldiv@divisor:	
  2184                           ; 4 bytes @ 0x6
  2185                           
  2186                           
  2187                           ; 4 bytes @ 0x6
  2188  0076                     	ds	1
  2189  0077                     readADCRaw@gpioValid:
  2190  0077                     i1readGPIO@portType:	
  2191                           ; 1 bytes @ 0x7
  2192                           
  2193                           
  2194                           ; 1 bytes @ 0x7
  2195  0077                     	ds	1
  2196  0078                     ??___lmul:
  2197  0078                     readADCRaw@i:	
  2198                           ; 1 bytes @ 0x8
  2199                           
  2200  0078                     i1readGPIO@gpioNumber:	
  2201                           ; 1 bytes @ 0x8
  2202                           
  2203  0078                     ___lmul@product:	
  2204                           ; 1 bytes @ 0x8
  2205                           
  2206                           
  2207                           ; 4 bytes @ 0x8
  2208  0078                     	ds	1
  2209  0079                     ??_currentTripRead:
  2210  0079                     readADCRaw@gpioNumber:	
  2211                           ; 1 bytes @ 0x9
  2212                           
  2213                           
  2214                           ; 1 bytes @ 0x9
  2215  0079                     	ds	1
  2216  007A                     ?_readFilteredVout:
  2217  007A                     ?_readFilteredDutyPot:	
  2218                           ; 2 bytes @ 0xA
  2219                           
  2220  007A                     ?_readFilteredFreqPot:	
  2221                           ; 2 bytes @ 0xA
  2222                           
  2223  007A                     _currentTripRead$913:	
  2224                           ; 2 bytes @ 0xA
  2225                           
  2226  007A                     readFilteredIL@i_921:	
  2227                           ; 1 bytes @ 0xA
  2228                           
  2229  007A                     ___lldiv@dividend:	
  2230                           ; 1 bytes @ 0xA
  2231                           
  2232                           
  2233                           ; 4 bytes @ 0xA
  2234  007A                     	ds	1
  2235  007B                     ??_currentTripMonitor:
  2236  007B                     readFilteredIL@i:	
  2237                           ; 1 bytes @ 0xB
  2238                           
  2239                           
  2240                           ; 1 bytes @ 0xB
  2241  007B                     	ds	1
  2242  007C                     ?_convertRawToMilliVolts:
  2243  007C                     convertRawToMilliVolts@rawValue:	
  2244                           ; 2 bytes @ 0xC
  2245                           
  2246                           
  2247                           ; 2 bytes @ 0xC
  2248  007C                     	ds	2
  2249                           
  2250                           	psect	cstackBANK0
  2251  0020                     __pcstackBANK0:
  2252  0020                     ??_readFilteredVout:
  2253  0020                     ??_readFilteredDutyPot:	
  2254                           ; 1 bytes @ 0x0
  2255                           
  2256  0020                     ??_readFilteredFreqPot:	
  2257                           ; 1 bytes @ 0x0
  2258                           
  2259  0020                     ??_convertRawToMilliVolts:	
  2260                           ; 1 bytes @ 0x0
  2261                           
  2262  0020                     ??___lldiv:	
  2263                           ; 1 bytes @ 0x0
  2264                           
  2265  0020                     ?___omul:	
  2266                           ; 1 bytes @ 0x0
  2267                           
  2268  0020                     ___omul@multiplier:	
  2269                           ; 8 bytes @ 0x0
  2270                           
  2271                           
  2272                           ; 8 bytes @ 0x0
  2273  0020                     	ds	1
  2274  0021                     ___lldiv@quotient:
  2275                           
  2276                           ; 4 bytes @ 0x1
  2277  0021                     	ds	3
  2278  0024                     readFilteredDutyPot@sumOfSamples:
  2279  0024                     readFilteredFreqPot@sumOfSamples:	
  2280                           ; 4 bytes @ 0x4
  2281                           
  2282  0024                     readFilteredVout@sumOfSamples:	
  2283                           ; 4 bytes @ 0x4
  2284                           
  2285                           
  2286                           ; 4 bytes @ 0x4
  2287  0024                     	ds	1
  2288  0025                     ___lldiv@counter:
  2289  0025                     convertRawToMilliVolts@vsenseMult:	
  2290                           ; 1 bytes @ 0x5
  2291                           
  2292                           
  2293                           ; 4 bytes @ 0x5
  2294  0025                     	ds	1
  2295  0026                     ??_runPotScaling:
  2296                           
  2297                           ; 1 bytes @ 0x6
  2298  0026                     	ds	2
  2299  0028                     readFilteredDutyPot@i_750:
  2300  0028                     readFilteredFreqPot@i_754:	
  2301                           ; 1 bytes @ 0x8
  2302                           
  2303  0028                     readFilteredVout@i_831:	
  2304                           ; 1 bytes @ 0x8
  2305                           
  2306  0028                     ___omul@multiplicand:	
  2307                           ; 1 bytes @ 0x8
  2308                           
  2309                           
  2310                           ; 8 bytes @ 0x8
  2311  0028                     	ds	1
  2312  0029                     readFilteredDutyPot@i:
  2313  0029                     readFilteredFreqPot@i:	
  2314                           ; 1 bytes @ 0x9
  2315                           
  2316  0029                     readFilteredVout@i:	
  2317                           ; 1 bytes @ 0x9
  2318                           
  2319  0029                     convertRawToMilliVolts@offsetted:	
  2320                           ; 1 bytes @ 0x9
  2321                           
  2322                           
  2323                           ; 2 bytes @ 0x9
  2324  0029                     	ds	2
  2325  002B                     convertRawToMilliVolts@returnValuedV:
  2326                           
  2327                           ; 2 bytes @ 0xB
  2328  002B                     	ds	3
  2329  002E                     runPotScaling@maxDuty:
  2330                           
  2331                           ; 2 bytes @ 0xE
  2332  002E                     	ds	2
  2333  0030                     ??_runVoltageModeControl:
  2334  0030                     runPotScaling@minDuty:	
  2335                           ; 1 bytes @ 0x10
  2336                           
  2337                           
  2338                           ; 2 bytes @ 0x10
  2339  0030                     	ds	16
  2340  0040                     runVoltageModeControl@integralMult:
  2341                           
  2342                           ; 8 bytes @ 0x20
  2343  0040                     	ds	8
  2344  0048                     runVoltageModeControl@propMult:
  2345                           
  2346                           ; 8 bytes @ 0x28
  2347  0048                     	ds	8
  2348  0050                     runVoltageModeControl@newVoltage:
  2349                           
  2350                           ; 2 bytes @ 0x30
  2351  0050                     	ds	2
  2352  0052                     ??_controlRoutine:
  2353                           
  2354                           ; 1 bytes @ 0x32
  2355  0052                     	ds	6
  2356  0058                     controlRoutine@maxDuty:
  2357                           
  2358                           ; 2 bytes @ 0x38
  2359  0058                     	ds	2
  2360  005A                     controlRoutine@minDuty:
  2361                           
  2362                           ; 2 bytes @ 0x3A
  2363  005A                     	ds	2
  2364  005C                     controlRoutine@setDuty_unreg:
  2365                           
  2366                           ; 2 bytes @ 0x3C
  2367  005C                     	ds	2
  2368  005E                     ??_Tick490Hz:
  2369                           
  2370                           ; 1 bytes @ 0x3E
  2371  005E                     	ds	1
  2372                           
  2373                           	psect	maintext
  2374  0D4B                     __pmaintext:	
  2375 ;;
  2376 ;;Main: autosize = 0, tempsize = 0, incstack = 0, save=0
  2377 ;;
  2378 ;; *************** function _main *****************
  2379 ;; Defined at:
  2380 ;;		line 107 in file "main.c"
  2381 ;; Parameters:    Size  Location     Type
  2382 ;;  argc            2    9[BANK1 ] int 
  2383 ;;  argv            2   11[BANK1 ] PTR PTR unsigned char 
  2384 ;; Auto vars:     Size  Location     Type
  2385 ;;		None
  2386 ;; Return value:  Size  Location     Type
  2387 ;;                  2    9[BANK1 ] int 
  2388 ;; Registers used:
  2389 ;;		wreg, fsr0l, fsr0h, status,2, status,0, pclath, cstack
  2390 ;; Tracked objects:
  2391 ;;		On entry : B1F/0
  2392 ;;		On exit  : 0/0
  2393 ;;		Unchanged: 0/0
  2394 ;; Data sizes:     COMMON   BANK0   BANK1   BANK2   BANK3   BANK4
  2395 ;;      Params:         0       0       4       0       0       0
  2396 ;;      Locals:         0       0       0       0       0       0
  2397 ;;      Temps:          0       0       0       0       0       0
  2398 ;;      Totals:         0       0       4       0       0       0
  2399 ;;Total ram usage:        4 bytes
  2400 ;; Hardware stack levels required when called: 8
  2401 ;; This function calls:
  2402 ;;		_initialiseADCModule
  2403 ;;		_initialiseController
  2404 ;;		_initialiseCurrentSensors
  2405 ;;		_initialiseGPIO
  2406 ;;		_initialisePotentiometers
  2407 ;;		_readGPIO
  2408 ;;		_setupInternalOscillator
  2409 ;;		_setupPWM
  2410 ;;		_setupTimer0Interrupt
  2411 ;;		_transToCurrentModeControl
  2412 ;;		_transToPotControl
  2413 ;;		_transToVoltageModeControl
  2414 ;; This function is called by:
  2415 ;;		Startup code after reset
  2416 ;; This function uses a non-reentrant model
  2417 ;;
  2418                           
  2419  0D4B                     _main:	
  2420                           ;psect for function _main
  2421                           
  2422  0D4B                     l2720:	
  2423                           ;incstack = 0
  2424                           ; Regs used in _main: [wreg-fsr0h+status,2+status,0+pclath+cstack]
  2425                           
  2426                           
  2427                           ;main.c: 109:     setupInternalOscillator(freq32M);
  2428  0D4B  300A               	movlw	10
  2429  0D4C  3184  24C4  318D   	fcall	_setupInternalOscillator
  2430  0D4F                     l2722:
  2431                           
  2432                           ;main.c: 111:     setupPWM();
  2433  0D4F  318C  2448  318D   	fcall	_setupPWM
  2434  0D52                     l2724:
  2435                           
  2436                           ;main.c: 112:     setupTimer0Interrupt();
  2437  0D52  318B  23FA  318D   	fcall	_setupTimer0Interrupt
  2438  0D55                     l2726:
  2439                           
  2440                           ;main.c: 113:     initialiseADCModule();
  2441  0D55  318B  23E0  318D   	fcall	_initialiseADCModule
  2442  0D58                     l2728:
  2443                           
  2444                           ;main.c: 114:     initialiseCurrentSensors();
  2445  0D58  318C  24A0  318D   	fcall	_initialiseCurrentSensors
  2446  0D5B                     l2730:
  2447                           
  2448                           ;main.c: 115:     initialisePotentiometers();
  2449  0D5B  318C  240B  318D   	fcall	_initialisePotentiometers
  2450  0D5E                     l2732:
  2451                           
  2452                           ;main.c: 116:     initialiseController();
  2453  0D5E  318C  2464  318D   	fcall	_initialiseController
  2454  0D61                     l2734:
  2455                           
  2456                           ;main.c: 118:     initialiseGPIO(pinRB4, 0);
  2457  0D61  0021               	movlb	1	; select bank1
  2458  0D62  01D2               	clrf	initialiseGPIO@direction^(0+128)
  2459  0D63  300C               	movlw	12
  2460  0D64  3185  2589  318D   	fcall	_initialiseGPIO
  2461  0D67                     l2736:
  2462                           
  2463                           ;main.c: 119:     initialiseGPIO(pinRB5, 0);
  2464  0D67  0021               	movlb	1	; select bank1
  2465  0D68  01D2               	clrf	initialiseGPIO@direction^(0+128)
  2466  0D69  300D               	movlw	13
  2467  0D6A  3185  2589  318D   	fcall	_initialiseGPIO
  2468  0D6D                     l2738:
  2469  0D6D                     l2740:	
  2470                           ;main.c: 121:     _delay((unsigned long)((100)*(freq32M/4000.0)));
  2471                           
  2472                           
  2473                           ;main.c: 124:         if(1 == 1) transToVoltageModeControl();
  2474  0D6D  3008               	movlw	8
  2475  0D6E  318E  2602  318D   	fcall	_readGPIO
  2476  0D71  3A01               	xorlw	1
  2477  0D72  1903               	skipnz
  2478  0D73  2D75               	goto	u2531
  2479  0D74  2D76               	goto	u2530
  2480  0D75                     u2531:
  2481  0D75  2D7A               	goto	l2746
  2482  0D76                     u2530:
  2483  0D76                     l2742:
  2484  0D76  318B  23F3  318D   	fcall	_transToVoltageModeControl
  2485  0D79  2D7D               	goto	l118
  2486  0D7A                     l2746:
  2487  0D7A  318B  23DC  318D   	fcall	_transToPotControl
  2488  0D7D                     l118:	
  2489                           ;main.c: 129:     while(1){
  2490                           
  2491  0D7D  2D7D               	goto	l118
  2492  0D7E  3180  2886         	ljmp	start
  2493  0D80                     __end_of_main:
  2494                           
  2495                           	psect	text1
  2496  0BF3                     __ptext1:	
  2497 ;; *************** function _transToVoltageModeControl *****************
  2498 ;; Defined at:
  2499 ;;		line 27 in file "StateMachine.c"
  2500 ;; Parameters:    Size  Location     Type
  2501 ;;		None
  2502 ;; Auto vars:     Size  Location     Type
  2503 ;;		None
  2504 ;; Return value:  Size  Location     Type
  2505 ;;                  1    wreg      void 
  2506 ;; Registers used:
  2507 ;;		wreg
  2508 ;; Tracked objects:
  2509 ;;		On entry : 0/0
  2510 ;;		On exit  : 0/0
  2511 ;;		Unchanged: 0/0
  2512 ;; Data sizes:     COMMON   BANK0   BANK1   BANK2   BANK3   BANK4
  2513 ;;      Params:         0       0       0       0       0       0
  2514 ;;      Locals:         0       0       0       0       0       0
  2515 ;;      Temps:          0       0       1       0       0       0
  2516 ;;      Totals:         0       0       1       0       0       0
  2517 ;;Total ram usage:        1 bytes
  2518 ;; Hardware stack levels used: 1
  2519 ;; Hardware stack levels required when called: 5
  2520 ;; This function calls:
  2521 ;;		Nothing
  2522 ;; This function is called by:
  2523 ;;		_main
  2524 ;; This function uses a non-reentrant model
  2525 ;;
  2526                           
  2527  0BF3                     _transToVoltageModeControl:	
  2528                           ;psect for function _transToVoltageModeControl
  2529                           
  2530  0BF3                     l2680:	
  2531                           ;incstack = 0
  2532                           ; Regs used in _transToVoltageModeControl: [wreg]
  2533                           
  2534                           
  2535                           ;StateMachine.c: 28:     currentState = voltageModeControl;
  2536  0BF3  3002               	movlw	2
  2537  0BF4  0021               	movlb	1	; select bank1
  2538  0BF5  00D2               	movwf	??_transToVoltageModeControl^(0+128)
  2539  0BF6  0852               	movf	??_transToVoltageModeControl^(0+128),w
  2540  0BF7  0020               	movlb	0	; select bank0
  2541  0BF8  00EC               	movwf	_currentState
  2542  0BF9                     l559:
  2543  0BF9  0008               	return
  2544  0BFA                     __end_of_transToVoltageModeControl:
  2545                           
  2546                           	psect	text2
  2547  0BDC                     __ptext2:	
  2548 ;; *************** function _transToPotControl *****************
  2549 ;; Defined at:
  2550 ;;		line 18 in file "StateMachine.c"
  2551 ;; Parameters:    Size  Location     Type
  2552 ;;		None
  2553 ;; Auto vars:     Size  Location     Type
  2554 ;;		None
  2555 ;; Return value:  Size  Location     Type
  2556 ;;                  1    wreg      void 
  2557 ;; Registers used:
  2558 ;;		None
  2559 ;; Tracked objects:
  2560 ;;		On entry : 0/0
  2561 ;;		On exit  : 0/0
  2562 ;;		Unchanged: 0/0
  2563 ;; Data sizes:     COMMON   BANK0   BANK1   BANK2   BANK3   BANK4
  2564 ;;      Params:         0       0       0       0       0       0
  2565 ;;      Locals:         0       0       0       0       0       0
  2566 ;;      Temps:          0       0       0       0       0       0
  2567 ;;      Totals:         0       0       0       0       0       0
  2568 ;;Total ram usage:        0 bytes
  2569 ;; Hardware stack levels used: 1
  2570 ;; Hardware stack levels required when called: 5
  2571 ;; This function calls:
  2572 ;;		Nothing
  2573 ;; This function is called by:
  2574 ;;		_main
  2575 ;; This function uses a non-reentrant model
  2576 ;;
  2577                           
  2578  0BDC                     _transToPotControl:	
  2579                           ;psect for function _transToPotControl
  2580                           
  2581  0BDC                     l2684:	
  2582                           ;incstack = 0
  2583                           ; Regs used in _transToPotControl: []
  2584                           
  2585                           
  2586                           ;StateMachine.c: 19:     currentState = potControl;
  2587  0BDC  0020               	movlb	0	; select bank0
  2588  0BDD  01EC               	clrf	_currentState
  2589  0BDE  0AEC               	incf	_currentState,f
  2590  0BDF                     l556:
  2591  0BDF  0008               	return
  2592  0BE0                     __end_of_transToPotControl:
  2593                           
  2594                           	psect	text3
  2595  0BEC                     __ptext3:	
  2596 ;; *************** function _transToCurrentModeControl *****************
  2597 ;; Defined at:
  2598 ;;		line 36 in file "StateMachine.c"
  2599 ;; Parameters:    Size  Location     Type
  2600 ;;		None
  2601 ;; Auto vars:     Size  Location     Type
  2602 ;;		None
  2603 ;; Return value:  Size  Location     Type
  2604 ;;                  1    wreg      void 
  2605 ;; Registers used:
  2606 ;;		wreg
  2607 ;; Tracked objects:
  2608 ;;		On entry : 0/0
  2609 ;;		On exit  : 0/0
  2610 ;;		Unchanged: 0/0
  2611 ;; Data sizes:     COMMON   BANK0   BANK1   BANK2   BANK3   BANK4
  2612 ;;      Params:         0       0       0       0       0       0
  2613 ;;      Locals:         0       0       0       0       0       0
  2614 ;;      Temps:          0       0       1       0       0       0
  2615 ;;      Totals:         0       0       1       0       0       0
  2616 ;;Total ram usage:        1 bytes
  2617 ;; Hardware stack levels used: 1
  2618 ;; Hardware stack levels required when called: 5
  2619 ;; This function calls:
  2620 ;;		Nothing
  2621 ;; This function is called by:
  2622 ;;		_main
  2623 ;; This function uses a non-reentrant model
  2624 ;;
  2625                           
  2626  0BEC                     _transToCurrentModeControl:	
  2627                           ;psect for function _transToCurrentModeControl
  2628                           
  2629  0BEC                     l2682:	
  2630                           ;incstack = 0
  2631                           ; Regs used in _transToCurrentModeControl: [wreg]
  2632                           
  2633                           
  2634                           ;StateMachine.c: 37:     currentState = currentModeControl;
  2635  0BEC  3003               	movlw	3
  2636  0BED  0021               	movlb	1	; select bank1
  2637  0BEE  00D2               	movwf	??_transToCurrentModeControl^(0+128)
  2638  0BEF  0852               	movf	??_transToCurrentModeControl^(0+128),w
  2639  0BF0  0020               	movlb	0	; select bank0
  2640  0BF1  00EC               	movwf	_currentState
  2641  0BF2                     l562:
  2642  0BF2  0008               	return
  2643  0BF3                     __end_of_transToCurrentModeControl:
  2644                           
  2645                           	psect	text4
  2646  0BFA                     __ptext4:	
  2647 ;; *************** function _setupTimer0Interrupt *****************
  2648 ;; Defined at:
  2649 ;;		line 17 in file "Timer0.c"
  2650 ;; Parameters:    Size  Location     Type
  2651 ;;		None
  2652 ;; Auto vars:     Size  Location     Type
  2653 ;;		None
  2654 ;; Return value:  Size  Location     Type
  2655 ;;                  1    wreg      void 
  2656 ;; Registers used:
  2657 ;;		wreg
  2658 ;; Tracked objects:
  2659 ;;		On entry : 0/0
  2660 ;;		On exit  : 0/0
  2661 ;;		Unchanged: 0/0
  2662 ;; Data sizes:     COMMON   BANK0   BANK1   BANK2   BANK3   BANK4
  2663 ;;      Params:         0       0       0       0       0       0
  2664 ;;      Locals:         0       0       0       0       0       0
  2665 ;;      Temps:          0       0       0       0       0       0
  2666 ;;      Totals:         0       0       0       0       0       0
  2667 ;;Total ram usage:        0 bytes
  2668 ;; Hardware stack levels used: 1
  2669 ;; Hardware stack levels required when called: 5
  2670 ;; This function calls:
  2671 ;;		Nothing
  2672 ;; This function is called by:
  2673 ;;		_main
  2674 ;; This function uses a non-reentrant model
  2675 ;;
  2676                           
  2677  0BFA                     _setupTimer0Interrupt:	
  2678                           ;psect for function _setupTimer0Interrupt
  2679                           
  2680  0BFA                     l2626:	
  2681                           ;incstack = 0
  2682                           ; Regs used in _setupTimer0Interrupt: [wreg]
  2683                           
  2684                           
  2685                           ;Timer0.c: 19:     INTCONbits.GIE = 1;
  2686  0BFA  178B               	bsf	11,7	;volatile
  2687                           
  2688                           ;Timer0.c: 20:     INTCONbits.TMR0IE = 1;
  2689  0BFB  168B               	bsf	11,5	;volatile
  2690                           
  2691                           ;Timer0.c: 21:     OPTION_REGbits.TMR0CS = 0;
  2692  0BFC  0021               	movlb	1	; select bank1
  2693  0BFD  1295               	bcf	21,5	;volatile
  2694                           
  2695                           ;Timer0.c: 22:     OPTION_REGbits.PSA = 0;
  2696  0BFE  1195               	bcf	21,3	;volatile
  2697  0BFF                     l2628:
  2698                           
  2699                           ;Timer0.c: 23:     OPTION_REG = 0b101;
  2700  0BFF  3005               	movlw	5
  2701  0C00  0095               	movwf	21	;volatile
  2702  0C01                     l199:
  2703  0C01  0008               	return
  2704  0C02                     __end_of_setupTimer0Interrupt:
  2705                           
  2706                           	psect	text5
  2707  0C48                     __ptext5:	
  2708 ;; *************** function _setupPWM *****************
  2709 ;; Defined at:
  2710 ;;		line 16 in file "PWM.c"
  2711 ;; Parameters:    Size  Location     Type
  2712 ;;		None
  2713 ;; Auto vars:     Size  Location     Type
  2714 ;;		None
  2715 ;; Return value:  Size  Location     Type
  2716 ;;                  1    wreg      void 
  2717 ;; Registers used:
  2718 ;;		wreg, status,2, status,0, pclath, cstack
  2719 ;; Tracked objects:
  2720 ;;		On entry : 0/0
  2721 ;;		On exit  : 0/0
  2722 ;;		Unchanged: 0/0
  2723 ;; Data sizes:     COMMON   BANK0   BANK1   BANK2   BANK3   BANK4
  2724 ;;      Params:         0       0       0       0       0       0
  2725 ;;      Locals:         0       0       0       0       0       0
  2726 ;;      Temps:          0       0       0       0       0       0
  2727 ;;      Totals:         0       0       0       0       0       0
  2728 ;;Total ram usage:        0 bytes
  2729 ;; Hardware stack levels used: 1
  2730 ;; Hardware stack levels required when called: 6
  2731 ;; This function calls:
  2732 ;;		_initialiseGPIO
  2733 ;; This function is called by:
  2734 ;;		_main
  2735 ;; This function uses a non-reentrant model
  2736 ;;
  2737                           
  2738  0C48                     _setupPWM:	
  2739                           ;psect for function _setupPWM
  2740                           
  2741  0C48                     l2602:	
  2742                           ;incstack = 0
  2743                           ; Regs used in _setupPWM: [wreg+status,2+status,0+pclath+cstack]
  2744                           
  2745                           
  2746                           ;PWM.c: 18:     CCP1CON = 0b00001100;
  2747  0C48  300C               	movlw	12
  2748  0C49  0025               	movlb	5	; select bank5
  2749  0C4A  0093               	movwf	19	;volatile
  2750  0C4B                     l2604:
  2751                           
  2752                           ;PWM.c: 20:     PR2 = 0;
  2753  0C4B  0020               	movlb	0	; select bank0
  2754  0C4C  019B               	clrf	27	;volatile
  2755  0C4D                     l2606:
  2756                           
  2757                           ;PWM.c: 21:     CCPR1L = 0;
  2758  0C4D  0025               	movlb	5	; select bank5
  2759  0C4E  0191               	clrf	17	;volatile
  2760  0C4F                     l2608:
  2761                           
  2762                           ;PWM.c: 23:     APFCON0bits.P1DSEL = 1;
  2763  0C4F  0022               	movlb	2	; select bank2
  2764  0C50  151D               	bsf	29,2	;volatile
  2765  0C51                     l2610:
  2766                           
  2767                           ;PWM.c: 24:     PSTR1CONbits.STR1D = 1;
  2768  0C51  0025               	movlb	5	; select bank5
  2769  0C52  1596               	bsf	22,3	;volatile
  2770  0C53                     l2612:
  2771                           
  2772                           ;PWM.c: 25:     PSTR1CONbits.STR1A = 0;
  2773  0C53  1016               	bcf	22,0	;volatile
  2774  0C54                     l2614:
  2775                           
  2776                           ;PWM.c: 27:     T2CONbits.T2CKPS = 0b00;
  2777  0C54  30FC               	movlw	-4
  2778  0C55  0020               	movlb	0	; select bank0
  2779  0C56  059C               	andwf	28,f	;volatile
  2780  0C57                     l2616:
  2781                           
  2782                           ;PWM.c: 28:     PIE1bits.TMR2IE = 0;
  2783  0C57  0021               	movlb	1	; select bank1
  2784  0C58  1091               	bcf	17,1	;volatile
  2785  0C59                     l2618:
  2786                           
  2787                           ;PWM.c: 29:     T2CONbits.TMR2ON = 1;
  2788  0C59  0020               	movlb	0	; select bank0
  2789  0C5A  151C               	bsf	28,2	;volatile
  2790  0C5B                     l2620:
  2791                           
  2792                           ;PWM.c: 31:     INTCONbits.PEIE = 1;
  2793  0C5B  170B               	bsf	11,6	;volatile
  2794  0C5C                     l2622:
  2795                           
  2796                           ;PWM.c: 32:     PIE1bits.CCP1IE = 1;
  2797  0C5C  0021               	movlb	1	; select bank1
  2798  0C5D  1511               	bsf	17,2	;volatile
  2799  0C5E                     l2624:
  2800                           
  2801                           ;PWM.c: 36:     initialiseGPIO(pinRA6, 0);
  2802  0C5E  01D2               	clrf	initialiseGPIO@direction^(0+128)
  2803  0C5F  3006               	movlw	6
  2804  0C60  3185  2589  318C   	fcall	_initialiseGPIO
  2805  0C63                     l172:
  2806  0C63  0008               	return
  2807  0C64                     __end_of_setupPWM:
  2808                           
  2809                           	psect	text6
  2810  04C4                     __ptext6:	
  2811 ;; *************** function _setupInternalOscillator *****************
  2812 ;; Defined at:
  2813 ;;		line 140 in file "main.c"
  2814 ;; Parameters:    Size  Location     Type
  2815 ;;  selectedFreq    1    wreg     const enum E2845
  2816 ;; Auto vars:     Size  Location     Type
  2817 ;;  selectedFreq    1    2[BANK1 ] const enum E2845
  2818 ;; Return value:  Size  Location     Type
  2819 ;;                  1    wreg      void 
  2820 ;; Registers used:
  2821 ;;		wreg, fsr0l, fsr0h, status,2, status,0
  2822 ;; Tracked objects:
  2823 ;;		On entry : 0/0
  2824 ;;		On exit  : 0/0
  2825 ;;		Unchanged: 0/0
  2826 ;; Data sizes:     COMMON   BANK0   BANK1   BANK2   BANK3   BANK4
  2827 ;;      Params:         0       0       0       0       0       0
  2828 ;;      Locals:         0       0       1       0       0       0
  2829 ;;      Temps:          0       0       2       0       0       0
  2830 ;;      Totals:         0       0       3       0       0       0
  2831 ;;Total ram usage:        3 bytes
  2832 ;; Hardware stack levels used: 1
  2833 ;; Hardware stack levels required when called: 5
  2834 ;; This function calls:
  2835 ;;		Nothing
  2836 ;; This function is called by:
  2837 ;;		_main
  2838 ;; This function uses a non-reentrant model
  2839 ;;
  2840                           
  2841  04C4                     _setupInternalOscillator:	
  2842                           ;psect for function _setupInternalOscillator
  2843                           
  2844                           
  2845                           ;incstack = 0
  2846                           ; Regs used in _setupInternalOscillator: [wreg-fsr0h+status,2+status,0]
  2847                           ;setupInternalOscillator@selectedFreq stored from wreg
  2848  04C4  0021               	movlb	1	; select bank1
  2849  04C5  00D4               	movwf	setupInternalOscillator@selectedFreq^(0+128)
  2850  04C6                     l2524:
  2851                           
  2852                           ;main.c: 144:     switch(selectedFreq){
  2853  04C6  2D5D               	goto	l2594
  2854  04C7                     l2526:
  2855  04C7  3087               	movlw	-121
  2856  04C8  0599               	andwf	25,f	;volatile
  2857  04C9                     l2528:
  2858  04C9  1399               	bcf	25,7	;volatile
  2859  04CA                     l2530:
  2860  04CA  3000               	movlw	0
  2861  04CB  00AB               	movwf	(_clockFrequency+3)^(0+128)
  2862  04CC  3000               	movlw	0
  2863  04CD  00AA               	movwf	(_clockFrequency+2)^(0+128)
  2864  04CE  3079               	movlw	121
  2865  04CF  00A9               	movwf	(_clockFrequency+1)^(0+128)
  2866  04D0  3018               	movlw	24
  2867  04D1  00A8               	movwf	_clockFrequency^(0+128)
  2868  04D2  2D88               	goto	l137
  2869  04D3                     l2532:
  2870  04D3  0819               	movf	25,w	;volatile
  2871  04D4  3987               	andlw	-121
  2872  04D5  3820               	iorlw	32
  2873  04D6  0099               	movwf	25	;volatile
  2874  04D7                     l2534:
  2875  04D7  1399               	bcf	25,7	;volatile
  2876  04D8                     l2536:
  2877  04D8  3000               	movlw	0
  2878  04D9  00AB               	movwf	(_clockFrequency+3)^(0+128)
  2879  04DA  3000               	movlw	0
  2880  04DB  00AA               	movwf	(_clockFrequency+2)^(0+128)
  2881  04DC  30F4               	movlw	244
  2882  04DD  00A9               	movwf	(_clockFrequency+1)^(0+128)
  2883  04DE  3024               	movlw	36
  2884  04DF  00A8               	movwf	_clockFrequency^(0+128)
  2885  04E0  2D88               	goto	l137
  2886  04E1                     l2538:
  2887  04E1  0819               	movf	25,w	;volatile
  2888  04E2  3987               	andlw	-121
  2889  04E3  3828               	iorlw	40
  2890  04E4  0099               	movwf	25	;volatile
  2891  04E5                     l2540:
  2892  04E5  1399               	bcf	25,7	;volatile
  2893  04E6                     l2542:
  2894  04E6  3000               	movlw	0
  2895  04E7  00AB               	movwf	(_clockFrequency+3)^(0+128)
  2896  04E8  3001               	movlw	1
  2897  04E9  00AA               	movwf	(_clockFrequency+2)^(0+128)
  2898  04EA  30E8               	movlw	232
  2899  04EB  00A9               	movwf	(_clockFrequency+1)^(0+128)
  2900  04EC  3048               	movlw	72
  2901  04ED  00A8               	movwf	_clockFrequency^(0+128)
  2902  04EE  2D88               	goto	l137
  2903  04EF                     l2544:
  2904  04EF  0819               	movf	25,w	;volatile
  2905  04F0  3987               	andlw	-121
  2906  04F1  3830               	iorlw	48
  2907  04F2  0099               	movwf	25	;volatile
  2908  04F3                     l2546:
  2909  04F3  1399               	bcf	25,7	;volatile
  2910  04F4                     l2548:
  2911  04F4  3000               	movlw	0
  2912  04F5  00AB               	movwf	(_clockFrequency+3)^(0+128)
  2913  04F6  3003               	movlw	3
  2914  04F7  00AA               	movwf	(_clockFrequency+2)^(0+128)
  2915  04F8  30D0               	movlw	208
  2916  04F9  00A9               	movwf	(_clockFrequency+1)^(0+128)
  2917  04FA  3090               	movlw	144
  2918  04FB  00A8               	movwf	_clockFrequency^(0+128)
  2919  04FC  2D88               	goto	l137
  2920  04FD                     l2550:
  2921  04FD  0819               	movf	25,w	;volatile
  2922  04FE  3987               	andlw	-121
  2923  04FF  3838               	iorlw	56
  2924  0500  0099               	movwf	25	;volatile
  2925  0501                     l2552:
  2926  0501  1399               	bcf	25,7	;volatile
  2927  0502                     l2554:
  2928  0502  3000               	movlw	0
  2929  0503  00AB               	movwf	(_clockFrequency+3)^(0+128)
  2930  0504  3007               	movlw	7
  2931  0505  00AA               	movwf	(_clockFrequency+2)^(0+128)
  2932  0506  30A1               	movlw	161
  2933  0507  00A9               	movwf	(_clockFrequency+1)^(0+128)
  2934  0508  3020               	movlw	32
  2935  0509  00A8               	movwf	_clockFrequency^(0+128)
  2936  050A  2D88               	goto	l137
  2937  050B                     l2556:
  2938  050B  0819               	movf	25,w	;volatile
  2939  050C  3987               	andlw	-121
  2940  050D  3858               	iorlw	88
  2941  050E  0099               	movwf	25	;volatile
  2942  050F                     l2558:
  2943  050F  1399               	bcf	25,7	;volatile
  2944  0510                     l2560:
  2945  0510  3000               	movlw	0
  2946  0511  00AB               	movwf	(_clockFrequency+3)^(0+128)
  2947  0512  300F               	movlw	15
  2948  0513  00AA               	movwf	(_clockFrequency+2)^(0+128)
  2949  0514  3042               	movlw	66
  2950  0515  00A9               	movwf	(_clockFrequency+1)^(0+128)
  2951  0516  3040               	movlw	64
  2952  0517  00A8               	movwf	_clockFrequency^(0+128)
  2953  0518  2D88               	goto	l137
  2954  0519                     l2562:
  2955  0519  0819               	movf	25,w	;volatile
  2956  051A  3987               	andlw	-121
  2957  051B  3860               	iorlw	96
  2958  051C  0099               	movwf	25	;volatile
  2959  051D                     l2564:
  2960  051D  1399               	bcf	25,7	;volatile
  2961  051E                     l2566:
  2962  051E  3000               	movlw	0
  2963  051F  00AB               	movwf	(_clockFrequency+3)^(0+128)
  2964  0520  301E               	movlw	30
  2965  0521  00AA               	movwf	(_clockFrequency+2)^(0+128)
  2966  0522  3084               	movlw	132
  2967  0523  00A9               	movwf	(_clockFrequency+1)^(0+128)
  2968  0524  3080               	movlw	128
  2969  0525  00A8               	movwf	_clockFrequency^(0+128)
  2970  0526  2D88               	goto	l137
  2971  0527                     l2568:
  2972  0527  0819               	movf	25,w	;volatile
  2973  0528  3987               	andlw	-121
  2974  0529  3868               	iorlw	104
  2975  052A  0099               	movwf	25	;volatile
  2976  052B                     l2570:
  2977  052B  1399               	bcf	25,7	;volatile
  2978  052C                     l2572:
  2979  052C  3000               	movlw	0
  2980  052D  00AB               	movwf	(_clockFrequency+3)^(0+128)
  2981  052E  303D               	movlw	61
  2982  052F  00AA               	movwf	(_clockFrequency+2)^(0+128)
  2983  0530  3009               	movlw	9
  2984  0531  00A9               	movwf	(_clockFrequency+1)^(0+128)
  2985  0532  3000               	movlw	0
  2986  0533  00A8               	movwf	_clockFrequency^(0+128)
  2987  0534  2D88               	goto	l137
  2988  0535                     l2574:
  2989  0535  0819               	movf	25,w	;volatile
  2990  0536  3987               	andlw	-121
  2991  0537  3870               	iorlw	112
  2992  0538  0099               	movwf	25	;volatile
  2993  0539                     l2576:
  2994  0539  1399               	bcf	25,7	;volatile
  2995  053A                     l2578:
  2996  053A  3000               	movlw	0
  2997  053B  00AB               	movwf	(_clockFrequency+3)^(0+128)
  2998  053C  307A               	movlw	122
  2999  053D  00AA               	movwf	(_clockFrequency+2)^(0+128)
  3000  053E  3012               	movlw	18
  3001  053F  00A9               	movwf	(_clockFrequency+1)^(0+128)
  3002  0540  3000               	movlw	0
  3003  0541  00A8               	movwf	_clockFrequency^(0+128)
  3004  0542  2D88               	goto	l137
  3005  0543                     l2580:
  3006  0543  3078               	movlw	120
  3007  0544  0499               	iorwf	25,f	;volatile
  3008  0545                     l2582:
  3009  0545  1399               	bcf	25,7	;volatile
  3010  0546                     l2584:
  3011  0546  3000               	movlw	0
  3012  0547  00AB               	movwf	(_clockFrequency+3)^(0+128)
  3013  0548  30F4               	movlw	244
  3014  0549  00AA               	movwf	(_clockFrequency+2)^(0+128)
  3015  054A  3024               	movlw	36
  3016  054B  00A9               	movwf	(_clockFrequency+1)^(0+128)
  3017  054C  3000               	movlw	0
  3018  054D  00A8               	movwf	_clockFrequency^(0+128)
  3019  054E  2D88               	goto	l137
  3020  054F                     l2586:
  3021  054F  0819               	movf	25,w	;volatile
  3022  0550  3987               	andlw	-121
  3023  0551  3870               	iorlw	112
  3024  0552  0099               	movwf	25	;volatile
  3025  0553                     l2588:
  3026  0553  1799               	bsf	25,7	;volatile
  3027  0554                     l2590:
  3028  0554  3001               	movlw	1
  3029  0555  00AB               	movwf	(_clockFrequency+3)^(0+128)
  3030  0556  30E8               	movlw	232
  3031  0557  00AA               	movwf	(_clockFrequency+2)^(0+128)
  3032  0558  3048               	movlw	72
  3033  0559  00A9               	movwf	(_clockFrequency+1)^(0+128)
  3034  055A  3000               	movlw	0
  3035  055B  00A8               	movwf	_clockFrequency^(0+128)
  3036  055C  2D88               	goto	l137
  3037  055D                     l2594:
  3038  055D  0854               	movf	setupInternalOscillator@selectedFreq^(0+128),w
  3039  055E  00D2               	movwf	??_setupInternalOscillator^(0+128)
  3040  055F  01D3               	clrf	(??_setupInternalOscillator^(0+128)+1)
  3041                           
  3042                           ; Switch on 2 bytes has been partitioned into a top level switch of size 1, and 1 sub-sw
      +                          itches
  3043                           ; Switch size 1, requested type "simple"
  3044                           ; Number of cases is 1, Range of values is 0 to 0
  3045                           ; switch strategies available:
  3046                           ; Name         Instructions Cycles
  3047                           ; simple_byte            4     3 (average)
  3048                           ; direct_byte            8     6 (fixed)
  3049                           ; jumptable            260     6 (fixed)
  3050                           ;	Chosen strategy is simple_byte
  3051  0560  0853               	movf	(??_setupInternalOscillator+1)^(0+128),w
  3052  0561  3A00               	xorlw	0	; case 0
  3053  0562  1903               	skipnz
  3054  0563  2D65               	goto	l2812
  3055  0564  2D88               	goto	l137
  3056  0565                     l2812:
  3057                           
  3058                           ; Switch size 1, requested type "simple"
  3059                           ; Number of cases is 11, Range of values is 0 to 10
  3060                           ; switch strategies available:
  3061                           ; Name         Instructions Cycles
  3062                           ; direct_byte           28     6 (fixed)
  3063                           ; simple_byte           34    18 (average)
  3064                           ; jumptable            260     6 (fixed)
  3065                           ;	Chosen strategy is simple_byte
  3066  0565  0852               	movf	??_setupInternalOscillator^(0+128),w
  3067  0566  3A00               	xorlw	0	; case 0
  3068  0567  1903               	skipnz
  3069  0568  2CC7               	goto	l2526
  3070  0569  3A01               	xorlw	1	; case 1
  3071  056A  1903               	skipnz
  3072  056B  2CD3               	goto	l2532
  3073  056C  3A03               	xorlw	3	; case 2
  3074  056D  1903               	skipnz
  3075  056E  2CE1               	goto	l2538
  3076  056F  3A01               	xorlw	1	; case 3
  3077  0570  1903               	skipnz
  3078  0571  2CEF               	goto	l2544
  3079  0572  3A07               	xorlw	7	; case 4
  3080  0573  1903               	skipnz
  3081  0574  2CFD               	goto	l2550
  3082  0575  3A01               	xorlw	1	; case 5
  3083  0576  1903               	skipnz
  3084  0577  2D0B               	goto	l2556
  3085  0578  3A03               	xorlw	3	; case 6
  3086  0579  1903               	skipnz
  3087  057A  2D19               	goto	l2562
  3088  057B  3A01               	xorlw	1	; case 7
  3089  057C  1903               	skipnz
  3090  057D  2D27               	goto	l2568
  3091  057E  3A0F               	xorlw	15	; case 8
  3092  057F  1903               	skipnz
  3093  0580  2D35               	goto	l2574
  3094  0581  3A01               	xorlw	1	; case 9
  3095  0582  1903               	skipnz
  3096  0583  2D43               	goto	l2580
  3097  0584  3A03               	xorlw	3	; case 10
  3098  0585  1903               	skipnz
  3099  0586  2D4F               	goto	l2586
  3100  0587  2D88               	goto	l137
  3101  0588                     l137:
  3102  0588  0008               	return
  3103  0589                     __end_of_setupInternalOscillator:
  3104                           
  3105                           	psect	text7
  3106  0E02                     __ptext7:	
  3107 ;; *************** function _readGPIO *****************
  3108 ;; Defined at:
  3109 ;;		line 79 in file "GPIO.c"
  3110 ;; Parameters:    Size  Location     Type
  3111 ;;  gpioNumber      1    wreg     const enum E2798
  3112 ;; Auto vars:     Size  Location     Type
  3113 ;;  gpioNumber      1    8[BANK1 ] const enum E2798
  3114 ;;  returnValueB    1    5[BANK1 ] unsigned char 
  3115 ;;  readB           1    4[BANK1 ] unsigned char 
  3116 ;;  returnValueA    1    3[BANK1 ] unsigned char 
  3117 ;;  readA           1    2[BANK1 ] unsigned char 
  3118 ;;  portType        1    7[BANK1 ] unsigned char 
  3119 ;;  portNumber      1    6[BANK1 ] unsigned char 
  3120 ;; Return value:  Size  Location     Type
  3121 ;;                  1    wreg      _Bool 
  3122 ;; Registers used:
  3123 ;;		wreg, status,2, status,0
  3124 ;; Tracked objects:
  3125 ;;		On entry : 0/0
  3126 ;;		On exit  : 0/0
  3127 ;;		Unchanged: 0/0
  3128 ;; Data sizes:     COMMON   BANK0   BANK1   BANK2   BANK3   BANK4
  3129 ;;      Params:         0       0       0       0       0       0
  3130 ;;      Locals:         0       0       7       0       0       0
  3131 ;;      Temps:          0       0       2       0       0       0
  3132 ;;      Totals:         0       0       9       0       0       0
  3133 ;;Total ram usage:        9 bytes
  3134 ;; Hardware stack levels used: 1
  3135 ;; Hardware stack levels required when called: 5
  3136 ;; This function calls:
  3137 ;;		Nothing
  3138 ;; This function is called by:
  3139 ;;		_main
  3140 ;; This function uses a non-reentrant model
  3141 ;;
  3142                           
  3143  0E02                     _readGPIO:	
  3144                           ;psect for function _readGPIO
  3145                           
  3146                           
  3147                           ;incstack = 0
  3148                           ; Regs used in _readGPIO: [wreg+status,2+status,0]
  3149                           ;readGPIO@gpioNumber stored from wreg
  3150  0E02  0021               	movlb	1	; select bank1
  3151  0E03  00DA               	movwf	readGPIO@gpioNumber^(0+128)
  3152  0E04                     l2640:
  3153                           
  3154                           ;GPIO.c: 81:     uint8_t portType = 0;
  3155  0E04  01D9               	clrf	readGPIO@portType^(0+128)
  3156  0E05                     l2642:
  3157                           
  3158                           ;GPIO.c: 82:     if(gpioNumber > 7){
  3159  0E05  3008               	movlw	8
  3160  0E06  025A               	subwf	readGPIO@gpioNumber^(0+128),w
  3161  0E07  1C03               	skipc
  3162  0E08  2E0A               	goto	u2401
  3163  0E09  2E0B               	goto	u2400
  3164  0E0A                     u2401:
  3165  0E0A  2E13               	goto	l2648
  3166  0E0B                     u2400:
  3167  0E0B                     l2644:
  3168                           
  3169                           ;GPIO.c: 83:         portNumber = gpioNumber - 8;
  3170  0E0B  085A               	movf	readGPIO@gpioNumber^(0+128),w
  3171  0E0C  3EF8               	addlw	248
  3172  0E0D  00D2               	movwf	??_readGPIO^(0+128)
  3173  0E0E  0852               	movf	??_readGPIO^(0+128),w
  3174  0E0F  00D8               	movwf	readGPIO@portNumber^(0+128)
  3175  0E10                     l2646:
  3176                           
  3177                           ;GPIO.c: 84:         portType = 1;
  3178  0E10  01D9               	clrf	readGPIO@portType^(0+128)
  3179  0E11  0AD9               	incf	readGPIO@portType^(0+128),f
  3180                           
  3181                           ;GPIO.c: 85:     }
  3182  0E12  2E18               	goto	l2652
  3183  0E13                     l2648:
  3184                           
  3185                           ;GPIO.c: 87:         portNumber = gpioNumber;
  3186  0E13  085A               	movf	readGPIO@gpioNumber^(0+128),w
  3187  0E14  00D2               	movwf	??_readGPIO^(0+128)
  3188  0E15  0852               	movf	??_readGPIO^(0+128),w
  3189  0E16  00D8               	movwf	readGPIO@portNumber^(0+128)
  3190  0E17                     l2650:
  3191                           
  3192                           ;GPIO.c: 88:         portType = 0;
  3193  0E17  01D9               	clrf	readGPIO@portType^(0+128)
  3194  0E18                     l2652:
  3195                           
  3196                           ;GPIO.c: 91:     if(portType == 0){
  3197  0E18  0859               	movf	readGPIO@portType^(0+128),w
  3198  0E19  1D03               	btfss	3,2
  3199  0E1A  2E1C               	goto	u2411
  3200  0E1B  2E1D               	goto	u2410
  3201  0E1C                     u2411:
  3202  0E1C  2E31               	goto	l2664
  3203  0E1D                     u2410:
  3204  0E1D                     l2654:
  3205                           
  3206                           ;GPIO.c: 92:         uint8_t readA = PORTA;
  3207  0E1D  0020               	movlb	0	; select bank0
  3208  0E1E  080C               	movf	12,w	;volatile
  3209  0E1F  0021               	movlb	1	; select bank1
  3210  0E20  00D2               	movwf	??_readGPIO^(0+128)
  3211  0E21  0852               	movf	??_readGPIO^(0+128),w
  3212  0E22  00D4               	movwf	readGPIO@readA^(0+128)
  3213  0E23                     l2656:
  3214                           
  3215                           ;GPIO.c: 93:         uint8_t returnValueA = ((readA >> ((uint8_t) portNumber)) & 1u);
  3216  0E23  0854               	movf	readGPIO@readA^(0+128),w
  3217  0E24  00D2               	movwf	??_readGPIO^(0+128)
  3218  0E25  0A58               	incf	readGPIO@portNumber^(0+128),w
  3219  0E26  2E28               	goto	u2424
  3220  0E27                     u2425:
  3221  0E27  36D2               	lsrf	??_readGPIO^(0+128),f
  3222  0E28                     u2424:
  3223  0E28  0B89               	decfsz	9,f
  3224  0E29  2E27               	goto	u2425
  3225  0E2A  0852               	movf	??_readGPIO^(0+128),w
  3226  0E2B  3901               	andlw	1
  3227  0E2C  00D3               	movwf	(??_readGPIO+1)^(0+128)
  3228  0E2D  0853               	movf	(??_readGPIO+1)^(0+128),w
  3229  0E2E  00D5               	movwf	readGPIO@returnValueA^(0+128)
  3230  0E2F                     l2658:
  3231                           
  3232                           ;GPIO.c: 94:         return returnValueA;
  3233  0E2F  0855               	movf	readGPIO@returnValueA^(0+128),w
  3234  0E30  2E4B               	goto	l324
  3235  0E31                     l2664:
  3236  0E31  0359               	decf	readGPIO@portType^(0+128),w
  3237  0E32  1D03               	btfss	3,2
  3238  0E33  2E35               	goto	u2431
  3239  0E34  2E36               	goto	u2430
  3240  0E35                     u2431:
  3241  0E35  2E4A               	goto	l2676
  3242  0E36                     u2430:
  3243  0E36                     l2666:
  3244                           
  3245                           ;GPIO.c: 97:         uint8_t readB = PORTB;
  3246  0E36  0020               	movlb	0	; select bank0
  3247  0E37  080D               	movf	13,w	;volatile
  3248  0E38  0021               	movlb	1	; select bank1
  3249  0E39  00D2               	movwf	??_readGPIO^(0+128)
  3250  0E3A  0852               	movf	??_readGPIO^(0+128),w
  3251  0E3B  00D6               	movwf	readGPIO@readB^(0+128)
  3252  0E3C                     l2668:
  3253                           
  3254                           ;GPIO.c: 98:         uint8_t returnValueB = ((readB >> ((uint8_t) portNumber)) & 1u);
  3255  0E3C  0856               	movf	readGPIO@readB^(0+128),w
  3256  0E3D  00D2               	movwf	??_readGPIO^(0+128)
  3257  0E3E  0A58               	incf	readGPIO@portNumber^(0+128),w
  3258  0E3F  2E41               	goto	u2444
  3259  0E40                     u2445:
  3260  0E40  36D2               	lsrf	??_readGPIO^(0+128),f
  3261  0E41                     u2444:
  3262  0E41  0B89               	decfsz	9,f
  3263  0E42  2E40               	goto	u2445
  3264  0E43  0852               	movf	??_readGPIO^(0+128),w
  3265  0E44  3901               	andlw	1
  3266  0E45  00D3               	movwf	(??_readGPIO+1)^(0+128)
  3267  0E46  0853               	movf	(??_readGPIO+1)^(0+128),w
  3268  0E47  00D7               	movwf	readGPIO@returnValueB^(0+128)
  3269  0E48                     l2670:
  3270                           
  3271                           ;GPIO.c: 99:         return returnValueB;
  3272  0E48  0857               	movf	readGPIO@returnValueB^(0+128),w
  3273  0E49  2E4B               	goto	l324
  3274  0E4A                     l2676:
  3275  0E4A  3000               	movlw	0
  3276  0E4B                     l324:
  3277  0E4B  0008               	return
  3278  0E4C                     __end_of_readGPIO:
  3279                           
  3280                           	psect	text8
  3281  0C0B                     __ptext8:	
  3282 ;; *************** function _initialisePotentiometers *****************
  3283 ;; Defined at:
  3284 ;;		line 15 in file "Potentiometer.c"
  3285 ;; Parameters:    Size  Location     Type
  3286 ;;		None
  3287 ;; Auto vars:     Size  Location     Type
  3288 ;;		None
  3289 ;; Return value:  Size  Location     Type
  3290 ;;                  1    wreg      void 
  3291 ;; Registers used:
  3292 ;;		wreg, status,2, status,0, pclath, cstack
  3293 ;; Tracked objects:
  3294 ;;		On entry : 0/0
  3295 ;;		On exit  : 0/0
  3296 ;;		Unchanged: 0/0
  3297 ;; Data sizes:     COMMON   BANK0   BANK1   BANK2   BANK3   BANK4
  3298 ;;      Params:         0       0       0       0       0       0
  3299 ;;      Locals:         0       0       0       0       0       0
  3300 ;;      Temps:          0       0       0       0       0       0
  3301 ;;      Totals:         0       0       0       0       0       0
  3302 ;;Total ram usage:        0 bytes
  3303 ;; Hardware stack levels used: 1
  3304 ;; Hardware stack levels required when called: 6
  3305 ;; This function calls:
  3306 ;;		_initialiseADCPin
  3307 ;; This function is called by:
  3308 ;;		_main
  3309 ;; This function uses a non-reentrant model
  3310 ;;
  3311                           
  3312  0C0B                     _initialisePotentiometers:	
  3313                           ;psect for function _initialisePotentiometers
  3314                           
  3315  0C0B                     l2634:	
  3316                           ;incstack = 0
  3317                           ; Regs used in _initialisePotentiometers: [wreg+status,2+status,0+pclath+cstack]
  3318                           
  3319                           
  3320                           ;Potentiometer.c: 16:     initialiseADCPin(pinRB1);
  3321  0C0B  3009               	movlw	9
  3322  0C0C  3185  25FF  318C   	fcall	_initialiseADCPin
  3323                           
  3324                           ;Potentiometer.c: 17:     initialiseADCPin(pinRB2);
  3325  0C0F  300A               	movlw	10
  3326  0C10  3185  25FF  318C   	fcall	_initialiseADCPin
  3327  0C13                     l356:
  3328  0C13  0008               	return
  3329  0C14                     __end_of_initialisePotentiometers:
  3330                           
  3331                           	psect	text9
  3332  0CA0                     __ptext9:	
  3333 ;; *************** function _initialiseCurrentSensors *****************
  3334 ;; Defined at:
  3335 ;;		line 18 in file "CurrentSensor.c"
  3336 ;; Parameters:    Size  Location     Type
  3337 ;;		None
  3338 ;; Auto vars:     Size  Location     Type
  3339 ;;		None
  3340 ;; Return value:  Size  Location     Type
  3341 ;;                  1    wreg      void 
  3342 ;; Registers used:
  3343 ;;		wreg, status,2, status,0, pclath, cstack
  3344 ;; Tracked objects:
  3345 ;;		On entry : 0/0
  3346 ;;		On exit  : 0/0
  3347 ;;		Unchanged: 0/0
  3348 ;; Data sizes:     COMMON   BANK0   BANK1   BANK2   BANK3   BANK4
  3349 ;;      Params:         0       0       0       0       0       0
  3350 ;;      Locals:         0       0       0       0       0       0
  3351 ;;      Temps:          0       0       0       0       0       0
  3352 ;;      Totals:         0       0       0       0       0       0
  3353 ;;Total ram usage:        0 bytes
  3354 ;; Hardware stack levels used: 1
  3355 ;; Hardware stack levels required when called: 7
  3356 ;; This function calls:
  3357 ;;		_currentTripReset
  3358 ;;		_initialiseADCPin
  3359 ;;		_initialiseGPIO
  3360 ;; This function is called by:
  3361 ;;		_main
  3362 ;; This function uses a non-reentrant model
  3363 ;;
  3364                           
  3365  0CA0                     _initialiseCurrentSensors:	
  3366                           ;psect for function _initialiseCurrentSensors
  3367                           
  3368  0CA0                     l2632:	
  3369                           ;incstack = 0
  3370                           ; Regs used in _initialiseCurrentSensors: [wreg+status,2+status,0+pclath+cstack]
  3371                           
  3372                           
  3373                           ;CurrentSensor.c: 19:     initialiseGPIO(pinRA3, 1);
  3374  0CA0  0021               	movlb	1	; select bank1
  3375  0CA1  01D2               	clrf	initialiseGPIO@direction^(0+128)
  3376  0CA2  0AD2               	incf	initialiseGPIO@direction^(0+128),f
  3377  0CA3  3003               	movlw	3
  3378  0CA4  3185  2589  318C   	fcall	_initialiseGPIO
  3379                           
  3380                           ;CurrentSensor.c: 20:     initialiseGPIO(pinRA1, 1);
  3381  0CA7  0021               	movlb	1	; select bank1
  3382  0CA8  01D2               	clrf	initialiseGPIO@direction^(0+128)
  3383  0CA9  0AD2               	incf	initialiseGPIO@direction^(0+128),f
  3384  0CAA  3001               	movlw	1
  3385  0CAB  3185  2589  318C   	fcall	_initialiseGPIO
  3386                           
  3387                           ;CurrentSensor.c: 21:     initialiseADCPin(pinRA0);
  3388  0CAE  3000               	movlw	0
  3389  0CAF  3185  25FF  318C   	fcall	_initialiseADCPin
  3390                           
  3391                           ;CurrentSensor.c: 22:     initialiseADCPin(pinRA2);
  3392  0CB2  3002               	movlw	2
  3393  0CB3  3185  25FF  318C   	fcall	_initialiseADCPin
  3394                           
  3395                           ;CurrentSensor.c: 23:     initialiseGPIO(pinRB3, 0);
  3396  0CB6  0021               	movlb	1	; select bank1
  3397  0CB7  01D2               	clrf	initialiseGPIO@direction^(0+128)
  3398  0CB8  300B               	movlw	11
  3399  0CB9  3185  2589  318C   	fcall	_initialiseGPIO
  3400                           
  3401                           ;CurrentSensor.c: 24:     currentTripReset();
  3402  0CBC  318C  2420  318C   	fcall	_currentTripReset
  3403  0CBF                     l508:
  3404  0CBF  0008               	return
  3405  0CC0                     __end_of_initialiseCurrentSensors:
  3406                           
  3407                           	psect	text10
  3408  0C20                     __ptext10:	
  3409 ;; *************** function _currentTripReset *****************
  3410 ;; Defined at:
  3411 ;;		line 71 in file "CurrentSensor.c"
  3412 ;; Parameters:    Size  Location     Type
  3413 ;;		None
  3414 ;; Auto vars:     Size  Location     Type
  3415 ;;		None
  3416 ;; Return value:  Size  Location     Type
  3417 ;;                  1    wreg      void 
  3418 ;; Registers used:
  3419 ;;		wreg, status,2, status,0, pclath, cstack
  3420 ;; Tracked objects:
  3421 ;;		On entry : 0/0
  3422 ;;		On exit  : 0/0
  3423 ;;		Unchanged: 0/0
  3424 ;; Data sizes:     COMMON   BANK0   BANK1   BANK2   BANK3   BANK4
  3425 ;;      Params:         0       0       0       0       0       0
  3426 ;;      Locals:         0       0       0       0       0       0
  3427 ;;      Temps:          0       0       0       0       0       0
  3428 ;;      Totals:         0       0       0       0       0       0
  3429 ;;Total ram usage:        0 bytes
  3430 ;; Hardware stack levels used: 1
  3431 ;; Hardware stack levels required when called: 6
  3432 ;; This function calls:
  3433 ;;		_writeGPIO
  3434 ;; This function is called by:
  3435 ;;		_initialiseCurrentSensors
  3436 ;; This function uses a non-reentrant model
  3437 ;;
  3438                           
  3439  0C20                     _currentTripReset:	
  3440                           ;psect for function _currentTripReset
  3441                           
  3442  0C20                     l2268:	
  3443                           ;incstack = 0
  3444                           ; Regs used in _currentTripReset: [wreg+status,2+status,0+pclath+cstack]
  3445                           
  3446                           
  3447                           ;CurrentSensor.c: 72:     writeGPIO(pinRB3, 0);
  3448  0C20  0021               	movlb	1	; select bank1
  3449  0C21  01D2               	clrf	writeGPIO@writeValue^(0+128)
  3450  0C22  300B               	movlw	11
  3451  0C23  3186  2665  318C   	fcall	_writeGPIO
  3452  0C26                     l2270:
  3453                           
  3454                           ;CurrentSensor.c: 73:      _delay((unsigned long)((20)*(freq32M/4000000.0)));
  3455                           ;CurrentSensor.c: 74:     writeGPIO(pinRB3, 1);
  3456  0C26  0021               	movlb	1	; select bank1
  3457  0C27  01D2               	clrf	writeGPIO@writeValue^(0+128)
  3458  0C28  0AD2               	incf	writeGPIO@writeValue^(0+128),f
  3459  0C29  300B               	movlw	11
  3460  0C2A  3186  2665  318C   	fcall	_writeGPIO
  3461  0C2D                     l530:
  3462  0C2D  0008               	return
  3463  0C2E                     __end_of_currentTripReset:
  3464                           
  3465                           	psect	text11
  3466  0665                     __ptext11:	
  3467 ;; *************** function _writeGPIO *****************
  3468 ;; Defined at:
  3469 ;;		line 52 in file "GPIO.c"
  3470 ;; Parameters:    Size  Location     Type
  3471 ;;  gpioNumber      1    wreg     const enum E2798
  3472 ;;  writeValue      1    0[BANK1 ] unsigned char 
  3473 ;; Auto vars:     Size  Location     Type
  3474 ;;  gpioNumber      1    4[BANK1 ] const enum E2798
  3475 ;;  portNumber      1    5[BANK1 ] unsigned char 
  3476 ;;  portType        1    3[BANK1 ] unsigned char 
  3477 ;; Return value:  Size  Location     Type
  3478 ;;                  1    wreg      void 
  3479 ;; Registers used:
  3480 ;;		wreg, status,2, status,0
  3481 ;; Tracked objects:
  3482 ;;		On entry : 0/0
  3483 ;;		On exit  : 0/0
  3484 ;;		Unchanged: 0/0
  3485 ;; Data sizes:     COMMON   BANK0   BANK1   BANK2   BANK3   BANK4
  3486 ;;      Params:         0       0       1       0       0       0
  3487 ;;      Locals:         0       0       3       0       0       0
  3488 ;;      Temps:          0       0       2       0       0       0
  3489 ;;      Totals:         0       0       6       0       0       0
  3490 ;;Total ram usage:        6 bytes
  3491 ;; Hardware stack levels used: 1
  3492 ;; Hardware stack levels required when called: 5
  3493 ;; This function calls:
  3494 ;;		Nothing
  3495 ;; This function is called by:
  3496 ;;		_currentTripReset
  3497 ;; This function uses a non-reentrant model
  3498 ;;
  3499                           
  3500  0665                     _writeGPIO:	
  3501                           ;psect for function _writeGPIO
  3502                           
  3503                           
  3504                           ;incstack = 0
  3505                           ; Regs used in _writeGPIO: [wreg+status,2+status,0]
  3506                           ;writeGPIO@gpioNumber stored from wreg
  3507  0665  0021               	movlb	1	; select bank1
  3508  0666  00D6               	movwf	writeGPIO@gpioNumber^(0+128)
  3509  0667                     l2016:
  3510                           
  3511                           ;GPIO.c: 54:     uint8_t portType = 0;
  3512  0667  01D5               	clrf	writeGPIO@portType^(0+128)
  3513  0668                     l2018:
  3514                           
  3515                           ;GPIO.c: 55:     if(gpioNumber > 7){
  3516  0668  3008               	movlw	8
  3517  0669  0256               	subwf	writeGPIO@gpioNumber^(0+128),w
  3518  066A  1C03               	skipc
  3519  066B  2E6D               	goto	u1331
  3520  066C  2E6E               	goto	u1330
  3521  066D                     u1331:
  3522  066D  2E76               	goto	l2024
  3523  066E                     u1330:
  3524  066E                     l2020:
  3525                           
  3526                           ;GPIO.c: 56:         portNumber = gpioNumber - 8;
  3527  066E  0856               	movf	writeGPIO@gpioNumber^(0+128),w
  3528  066F  3EF8               	addlw	248
  3529  0670  00D3               	movwf	??_writeGPIO^(0+128)
  3530  0671  0853               	movf	??_writeGPIO^(0+128),w
  3531  0672  00D7               	movwf	writeGPIO@portNumber^(0+128)
  3532  0673                     l2022:
  3533                           
  3534                           ;GPIO.c: 57:         portType = 1;
  3535  0673  01D5               	clrf	writeGPIO@portType^(0+128)
  3536  0674  0AD5               	incf	writeGPIO@portType^(0+128),f
  3537                           
  3538                           ;GPIO.c: 58:     }
  3539  0675  2E7B               	goto	l2028
  3540  0676                     l2024:
  3541                           
  3542                           ;GPIO.c: 60:         portNumber = gpioNumber;
  3543  0676  0856               	movf	writeGPIO@gpioNumber^(0+128),w
  3544  0677  00D3               	movwf	??_writeGPIO^(0+128)
  3545  0678  0853               	movf	??_writeGPIO^(0+128),w
  3546  0679  00D7               	movwf	writeGPIO@portNumber^(0+128)
  3547  067A                     l2026:
  3548                           
  3549                           ;GPIO.c: 61:         portType = 0;
  3550  067A  01D5               	clrf	writeGPIO@portType^(0+128)
  3551  067B                     l2028:
  3552                           
  3553                           ;GPIO.c: 64:     if(portType == 0){
  3554  067B  0855               	movf	writeGPIO@portType^(0+128),w
  3555  067C  1D03               	btfss	3,2
  3556  067D  2E7F               	goto	u1341
  3557  067E  2E80               	goto	u1340
  3558  067F                     u1341:
  3559  067F  2EA0               	goto	l2036
  3560  0680                     u1340:
  3561  0680                     l2030:
  3562                           
  3563                           ;GPIO.c: 65:         if(writeValue) LATA |= (1 << (uint8_t)portNumber);
  3564  0680  0852               	movf	writeGPIO@writeValue^(0+128),w
  3565  0681  1903               	btfsc	3,2
  3566  0682  2E84               	goto	u1351
  3567  0683  2E85               	goto	u1350
  3568  0684                     u1351:
  3569  0684  2E92               	goto	l2034
  3570  0685                     u1350:
  3571  0685                     l2032:
  3572  0685  3001               	movlw	1
  3573  0686  00D3               	movwf	??_writeGPIO^(0+128)
  3574  0687  0A57               	incf	writeGPIO@portNumber^(0+128),w
  3575  0688  2E8A               	goto	u1364
  3576  0689                     u1365:
  3577  0689  35D3               	lslf	??_writeGPIO^(0+128),f
  3578  068A                     u1364:
  3579  068A  0B89               	decfsz	9,f
  3580  068B  2E89               	goto	u1365
  3581  068C  0853               	movf	??_writeGPIO^(0+128),w
  3582  068D  00D4               	movwf	(??_writeGPIO+1)^(0+128)
  3583  068E  0854               	movf	(??_writeGPIO+1)^(0+128),w
  3584  068F  0022               	movlb	2	; select bank2
  3585  0690  048C               	iorwf	12,f	;volatile
  3586  0691  2EC4               	goto	l318
  3587  0692                     l2034:
  3588  0692  3001               	movlw	1
  3589  0693  00D3               	movwf	??_writeGPIO^(0+128)
  3590  0694  0A57               	incf	writeGPIO@portNumber^(0+128),w
  3591  0695  2E97               	goto	u1374
  3592  0696                     u1375:
  3593  0696  35D3               	lslf	??_writeGPIO^(0+128),f
  3594  0697                     u1374:
  3595  0697  0B89               	decfsz	9,f
  3596  0698  2E96               	goto	u1375
  3597  0699  0853               	movf	??_writeGPIO^(0+128),w
  3598  069A  3AFF               	xorlw	255
  3599  069B  00D4               	movwf	(??_writeGPIO+1)^(0+128)
  3600  069C  0854               	movf	(??_writeGPIO+1)^(0+128),w
  3601  069D  0022               	movlb	2	; select bank2
  3602  069E  058C               	andwf	12,f	;volatile
  3603  069F  2EC4               	goto	l318
  3604  06A0                     l2036:
  3605  06A0  0355               	decf	writeGPIO@portType^(0+128),w
  3606  06A1  1D03               	btfss	3,2
  3607  06A2  2EA4               	goto	u1381
  3608  06A3  2EA5               	goto	u1380
  3609  06A4                     u1381:
  3610  06A4  2EC4               	goto	l318
  3611  06A5                     u1380:
  3612  06A5                     l2038:
  3613                           
  3614                           ;GPIO.c: 69:         if(writeValue) LATB |= (1 << (uint8_t)portNumber);
  3615  06A5  0852               	movf	writeGPIO@writeValue^(0+128),w
  3616  06A6  1903               	btfsc	3,2
  3617  06A7  2EA9               	goto	u1391
  3618  06A8  2EAA               	goto	u1390
  3619  06A9                     u1391:
  3620  06A9  2EB7               	goto	l2042
  3621  06AA                     u1390:
  3622  06AA                     l2040:
  3623  06AA  3001               	movlw	1
  3624  06AB  00D3               	movwf	??_writeGPIO^(0+128)
  3625  06AC  0A57               	incf	writeGPIO@portNumber^(0+128),w
  3626  06AD  2EAF               	goto	u1404
  3627  06AE                     u1405:
  3628  06AE  35D3               	lslf	??_writeGPIO^(0+128),f
  3629  06AF                     u1404:
  3630  06AF  0B89               	decfsz	9,f
  3631  06B0  2EAE               	goto	u1405
  3632  06B1  0853               	movf	??_writeGPIO^(0+128),w
  3633  06B2  00D4               	movwf	(??_writeGPIO+1)^(0+128)
  3634  06B3  0854               	movf	(??_writeGPIO+1)^(0+128),w
  3635  06B4  0022               	movlb	2	; select bank2
  3636  06B5  048D               	iorwf	13,f	;volatile
  3637  06B6  2EC4               	goto	l318
  3638  06B7                     l2042:
  3639  06B7  3001               	movlw	1
  3640  06B8  00D3               	movwf	??_writeGPIO^(0+128)
  3641  06B9  0A57               	incf	writeGPIO@portNumber^(0+128),w
  3642  06BA  2EBC               	goto	u1414
  3643  06BB                     u1415:
  3644  06BB  35D3               	lslf	??_writeGPIO^(0+128),f
  3645  06BC                     u1414:
  3646  06BC  0B89               	decfsz	9,f
  3647  06BD  2EBB               	goto	u1415
  3648  06BE  0853               	movf	??_writeGPIO^(0+128),w
  3649  06BF  3AFF               	xorlw	255
  3650  06C0  00D4               	movwf	(??_writeGPIO+1)^(0+128)
  3651  06C1  0854               	movf	(??_writeGPIO+1)^(0+128),w
  3652  06C2  0022               	movlb	2	; select bank2
  3653  06C3  058D               	andwf	13,f	;volatile
  3654  06C4                     l318:
  3655  06C4  0008               	return
  3656  06C5                     __end_of_writeGPIO:
  3657                           
  3658                           	psect	text12
  3659  0C64                     __ptext12:	
  3660 ;; *************** function _initialiseController *****************
  3661 ;; Defined at:
  3662 ;;		line 28 in file "Controller.c"
  3663 ;; Parameters:    Size  Location     Type
  3664 ;;		None
  3665 ;; Auto vars:     Size  Location     Type
  3666 ;;		None
  3667 ;; Return value:  Size  Location     Type
  3668 ;;                  1    wreg      void 
  3669 ;; Registers used:
  3670 ;;		wreg, status,2, status,0, pclath, cstack
  3671 ;; Tracked objects:
  3672 ;;		On entry : 0/0
  3673 ;;		On exit  : 0/0
  3674 ;;		Unchanged: 0/0
  3675 ;; Data sizes:     COMMON   BANK0   BANK1   BANK2   BANK3   BANK4
  3676 ;;      Params:         0       0       0       0       0       0
  3677 ;;      Locals:         0       0       0       0       0       0
  3678 ;;      Temps:          0       0       0       0       0       0
  3679 ;;      Totals:         0       0       0       0       0       0
  3680 ;;Total ram usage:        0 bytes
  3681 ;; Hardware stack levels used: 1
  3682 ;; Hardware stack levels required when called: 6
  3683 ;; This function calls:
  3684 ;;		_initialiseADCPin
  3685 ;;		_initialiseGPIO
  3686 ;; This function is called by:
  3687 ;;		_main
  3688 ;; This function uses a non-reentrant model
  3689 ;;
  3690                           
  3691  0C64                     _initialiseController:	
  3692                           ;psect for function _initialiseController
  3693                           
  3694  0C64                     l2636:	
  3695                           ;incstack = 0
  3696                           ; Regs used in _initialiseController: [wreg+status,2+status,0+pclath+cstack]
  3697                           
  3698                           
  3699                           ;Controller.c: 29:     initialiseGPIO(pinRA4, 1);
  3700  0C64  0021               	movlb	1	; select bank1
  3701  0C65  01D2               	clrf	initialiseGPIO@direction^(0+128)
  3702  0C66  0AD2               	incf	initialiseGPIO@direction^(0+128),f
  3703  0C67  3004               	movlw	4
  3704  0C68  3185  2589  318C   	fcall	_initialiseGPIO
  3705                           
  3706                           ;Controller.c: 30:     initialiseADCPin(pinRA4);
  3707  0C6B  3004               	movlw	4
  3708  0C6C  3185  25FF  318C   	fcall	_initialiseADCPin
  3709  0C6F                     l2638:
  3710                           
  3711                           ;Controller.c: 31:     integratorScaledLimit = (int64_t) ((int64_t) (512u) << (0u + 16u)
      +                          );
  3712  0C6F  3000               	movlw	0
  3713  0C70  0021               	movlb	1	; select bank1
  3714  0C71  00A7               	movwf	(_integratorScaledLimit+7)^(0+128)
  3715  0C72  3000               	movlw	0
  3716  0C73  00A6               	movwf	(_integratorScaledLimit+6)^(0+128)
  3717  0C74  3000               	movlw	0
  3718  0C75  00A5               	movwf	(_integratorScaledLimit+5)^(0+128)
  3719  0C76  3000               	movlw	0
  3720  0C77  00A4               	movwf	(_integratorScaledLimit+4)^(0+128)
  3721  0C78  3002               	movlw	2
  3722  0C79  00A3               	movwf	(_integratorScaledLimit+3)^(0+128)
  3723  0C7A  3000               	movlw	0
  3724  0C7B  00A2               	movwf	(_integratorScaledLimit+2)^(0+128)
  3725  0C7C  3000               	movlw	0
  3726  0C7D  00A1               	movwf	(_integratorScaledLimit+1)^(0+128)
  3727  0C7E  3000               	movlw	0
  3728  0C7F  00A0               	movwf	_integratorScaledLimit^(0+128)
  3729  0C80                     l428:
  3730  0C80  0008               	return
  3731  0C81                     __end_of_initialiseController:
  3732                           
  3733                           	psect	text13
  3734  0589                     __ptext13:	
  3735 ;; *************** function _initialiseGPIO *****************
  3736 ;; Defined at:
  3737 ;;		line 18 in file "GPIO.c"
  3738 ;; Parameters:    Size  Location     Type
  3739 ;;  gpioNumber      1    wreg     const enum E2798
  3740 ;;  direction       1    0[BANK1 ] unsigned char 
  3741 ;; Auto vars:     Size  Location     Type
  3742 ;;  gpioNumber      1    4[BANK1 ] const enum E2798
  3743 ;;  portNumber      1    5[BANK1 ] unsigned char 
  3744 ;;  portType        1    3[BANK1 ] unsigned char 
  3745 ;; Return value:  Size  Location     Type
  3746 ;;                  1    wreg      void 
  3747 ;; Registers used:
  3748 ;;		wreg, status,2, status,0
  3749 ;; Tracked objects:
  3750 ;;		On entry : 0/0
  3751 ;;		On exit  : 0/0
  3752 ;;		Unchanged: 0/0
  3753 ;; Data sizes:     COMMON   BANK0   BANK1   BANK2   BANK3   BANK4
  3754 ;;      Params:         0       0       1       0       0       0
  3755 ;;      Locals:         0       0       3       0       0       0
  3756 ;;      Temps:          0       0       2       0       0       0
  3757 ;;      Totals:         0       0       6       0       0       0
  3758 ;;Total ram usage:        6 bytes
  3759 ;; Hardware stack levels used: 1
  3760 ;; Hardware stack levels required when called: 5
  3761 ;; This function calls:
  3762 ;;		Nothing
  3763 ;; This function is called by:
  3764 ;;		_main
  3765 ;;		_setupPWM
  3766 ;;		_initialiseController
  3767 ;;		_initialiseCurrentSensors
  3768 ;; This function uses a non-reentrant model
  3769 ;;
  3770                           
  3771  0589                     _initialiseGPIO:	
  3772                           ;psect for function _initialiseGPIO
  3773                           
  3774                           
  3775                           ;incstack = 0
  3776                           ; Regs used in _initialiseGPIO: [wreg+status,2+status,0]
  3777                           ;initialiseGPIO@gpioNumber stored from wreg
  3778  0589  0021               	movlb	1	; select bank1
  3779  058A  00D6               	movwf	initialiseGPIO@gpioNumber^(0+128)
  3780  058B                     l2136:
  3781                           
  3782                           ;GPIO.c: 20:     uint8_t portType = 0;
  3783  058B  01D5               	clrf	initialiseGPIO@portType^(0+128)
  3784  058C                     l2138:
  3785                           
  3786                           ;GPIO.c: 21:     if(gpioNumber > 7){
  3787  058C  3008               	movlw	8
  3788  058D  0256               	subwf	initialiseGPIO@gpioNumber^(0+128),w
  3789  058E  1C03               	skipc
  3790  058F  2D91               	goto	u1611
  3791  0590  2D92               	goto	u1610
  3792  0591                     u1611:
  3793  0591  2D9A               	goto	l2144
  3794  0592                     u1610:
  3795  0592                     l2140:
  3796                           
  3797                           ;GPIO.c: 22:         portNumber = gpioNumber - 8;
  3798  0592  0856               	movf	initialiseGPIO@gpioNumber^(0+128),w
  3799  0593  3EF8               	addlw	248
  3800  0594  00D3               	movwf	??_initialiseGPIO^(0+128)
  3801  0595  0853               	movf	??_initialiseGPIO^(0+128),w
  3802  0596  00D7               	movwf	initialiseGPIO@portNumber^(0+128)
  3803  0597                     l2142:
  3804                           
  3805                           ;GPIO.c: 23:         portType = 1;
  3806  0597  01D5               	clrf	initialiseGPIO@portType^(0+128)
  3807  0598  0AD5               	incf	initialiseGPIO@portType^(0+128),f
  3808                           
  3809                           ;GPIO.c: 24:     }
  3810  0599  2D9F               	goto	l2148
  3811  059A                     l2144:
  3812                           
  3813                           ;GPIO.c: 26:         portNumber = gpioNumber;
  3814  059A  0856               	movf	initialiseGPIO@gpioNumber^(0+128),w
  3815  059B  00D3               	movwf	??_initialiseGPIO^(0+128)
  3816  059C  0853               	movf	??_initialiseGPIO^(0+128),w
  3817  059D  00D7               	movwf	initialiseGPIO@portNumber^(0+128)
  3818  059E                     l2146:
  3819                           
  3820                           ;GPIO.c: 27:         portType = 0;
  3821  059E  01D5               	clrf	initialiseGPIO@portType^(0+128)
  3822  059F                     l2148:
  3823                           
  3824                           ;GPIO.c: 30:     if(portType == 0){
  3825  059F  0855               	movf	initialiseGPIO@portType^(0+128),w
  3826  05A0  1D03               	btfss	3,2
  3827  05A1  2DA3               	goto	u1621
  3828  05A2  2DA4               	goto	u1620
  3829  05A3                     u1621:
  3830  05A3  2DCF               	goto	l2156
  3831  05A4                     u1620:
  3832  05A4                     l2150:
  3833                           
  3834                           ;GPIO.c: 31:         if(direction){
  3835  05A4  0852               	movf	initialiseGPIO@direction^(0+128),w
  3836  05A5  1903               	btfsc	3,2
  3837  05A6  2DA8               	goto	u1631
  3838  05A7  2DA9               	goto	u1630
  3839  05A8                     u1631:
  3840  05A8  2DC2               	goto	l2154
  3841  05A9                     u1630:
  3842  05A9                     l2152:
  3843                           
  3844                           ;GPIO.c: 32:             TRISA |= (1 << (uint8_t)portNumber);
  3845  05A9  3001               	movlw	1
  3846  05AA  00D3               	movwf	??_initialiseGPIO^(0+128)
  3847  05AB  0A57               	incf	initialiseGPIO@portNumber^(0+128),w
  3848  05AC  2DAE               	goto	u1644
  3849  05AD                     u1645:
  3850  05AD  35D3               	lslf	??_initialiseGPIO^(0+128),f
  3851  05AE                     u1644:
  3852  05AE  0B89               	decfsz	9,f
  3853  05AF  2DAD               	goto	u1645
  3854  05B0  0853               	movf	??_initialiseGPIO^(0+128),w
  3855  05B1  00D4               	movwf	(??_initialiseGPIO+1)^(0+128)
  3856  05B2  0854               	movf	(??_initialiseGPIO+1)^(0+128),w
  3857  05B3  048C               	iorwf	12,f	;volatile
  3858                           
  3859                           ;GPIO.c: 33:             ANSELA &= ~(1 << (uint8_t)portNumber);
  3860  05B4  3001               	movlw	1
  3861  05B5  00D3               	movwf	??_initialiseGPIO^(0+128)
  3862  05B6  0A57               	incf	initialiseGPIO@portNumber^(0+128),w
  3863  05B7  2DB9               	goto	u1654
  3864  05B8                     u1655:
  3865  05B8  35D3               	lslf	??_initialiseGPIO^(0+128),f
  3866  05B9                     u1654:
  3867  05B9  0B89               	decfsz	9,f
  3868  05BA  2DB8               	goto	u1655
  3869  05BB  0853               	movf	??_initialiseGPIO^(0+128),w
  3870  05BC  3AFF               	xorlw	255
  3871  05BD  00D4               	movwf	(??_initialiseGPIO+1)^(0+128)
  3872  05BE  0854               	movf	(??_initialiseGPIO+1)^(0+128),w
  3873  05BF  0023               	movlb	3	; select bank3
  3874  05C0  058C               	andwf	12,f	;volatile
  3875                           
  3876                           ;GPIO.c: 34:         }
  3877  05C1  2DFE               	goto	l304
  3878  05C2                     l2154:
  3879  05C2  3001               	movlw	1
  3880  05C3  00D3               	movwf	??_initialiseGPIO^(0+128)
  3881  05C4  0A57               	incf	initialiseGPIO@portNumber^(0+128),w
  3882  05C5  2DC7               	goto	u1664
  3883  05C6                     u1665:
  3884  05C6  35D3               	lslf	??_initialiseGPIO^(0+128),f
  3885  05C7                     u1664:
  3886  05C7  0B89               	decfsz	9,f
  3887  05C8  2DC6               	goto	u1665
  3888  05C9  0853               	movf	??_initialiseGPIO^(0+128),w
  3889  05CA  3AFF               	xorlw	255
  3890  05CB  00D4               	movwf	(??_initialiseGPIO+1)^(0+128)
  3891  05CC  0854               	movf	(??_initialiseGPIO+1)^(0+128),w
  3892  05CD  058C               	andwf	12,f	;volatile
  3893  05CE  2DFE               	goto	l304
  3894  05CF                     l2156:
  3895  05CF  0355               	decf	initialiseGPIO@portType^(0+128),w
  3896  05D0  1D03               	btfss	3,2
  3897  05D1  2DD3               	goto	u1671
  3898  05D2  2DD4               	goto	u1670
  3899  05D3                     u1671:
  3900  05D3  2DFE               	goto	l304
  3901  05D4                     u1670:
  3902  05D4                     l2158:
  3903                           
  3904                           ;GPIO.c: 38:         if(direction){
  3905  05D4  0852               	movf	initialiseGPIO@direction^(0+128),w
  3906  05D5  1903               	btfsc	3,2
  3907  05D6  2DD8               	goto	u1681
  3908  05D7  2DD9               	goto	u1680
  3909  05D8                     u1681:
  3910  05D8  2DF2               	goto	l2162
  3911  05D9                     u1680:
  3912  05D9                     l2160:
  3913                           
  3914                           ;GPIO.c: 39:             TRISB |= (1 << (uint8_t)portNumber);
  3915  05D9  3001               	movlw	1
  3916  05DA  00D3               	movwf	??_initialiseGPIO^(0+128)
  3917  05DB  0A57               	incf	initialiseGPIO@portNumber^(0+128),w
  3918  05DC  2DDE               	goto	u1694
  3919  05DD                     u1695:
  3920  05DD  35D3               	lslf	??_initialiseGPIO^(0+128),f
  3921  05DE                     u1694:
  3922  05DE  0B89               	decfsz	9,f
  3923  05DF  2DDD               	goto	u1695
  3924  05E0  0853               	movf	??_initialiseGPIO^(0+128),w
  3925  05E1  00D4               	movwf	(??_initialiseGPIO+1)^(0+128)
  3926  05E2  0854               	movf	(??_initialiseGPIO+1)^(0+128),w
  3927  05E3  048D               	iorwf	13,f	;volatile
  3928                           
  3929                           ;GPIO.c: 40:             ANSELB &= ~(1 << (uint8_t)portNumber);
  3930  05E4  3001               	movlw	1
  3931  05E5  00D3               	movwf	??_initialiseGPIO^(0+128)
  3932  05E6  0A57               	incf	initialiseGPIO@portNumber^(0+128),w
  3933  05E7  2DE9               	goto	u1704
  3934  05E8                     u1705:
  3935  05E8  35D3               	lslf	??_initialiseGPIO^(0+128),f
  3936  05E9                     u1704:
  3937  05E9  0B89               	decfsz	9,f
  3938  05EA  2DE8               	goto	u1705
  3939  05EB  0853               	movf	??_initialiseGPIO^(0+128),w
  3940  05EC  3AFF               	xorlw	255
  3941  05ED  00D4               	movwf	(??_initialiseGPIO+1)^(0+128)
  3942  05EE  0854               	movf	(??_initialiseGPIO+1)^(0+128),w
  3943  05EF  0023               	movlb	3	; select bank3
  3944  05F0  058D               	andwf	13,f	;volatile
  3945                           
  3946                           ;GPIO.c: 41:         }
  3947  05F1  2DFE               	goto	l304
  3948  05F2                     l2162:
  3949  05F2  3001               	movlw	1
  3950  05F3  00D3               	movwf	??_initialiseGPIO^(0+128)
  3951  05F4  0A57               	incf	initialiseGPIO@portNumber^(0+128),w
  3952  05F5  2DF7               	goto	u1714
  3953  05F6                     u1715:
  3954  05F6  35D3               	lslf	??_initialiseGPIO^(0+128),f
  3955  05F7                     u1714:
  3956  05F7  0B89               	decfsz	9,f
  3957  05F8  2DF6               	goto	u1715
  3958  05F9  0853               	movf	??_initialiseGPIO^(0+128),w
  3959  05FA  3AFF               	xorlw	255
  3960  05FB  00D4               	movwf	(??_initialiseGPIO+1)^(0+128)
  3961  05FC  0854               	movf	(??_initialiseGPIO+1)^(0+128),w
  3962  05FD  058D               	andwf	13,f	;volatile
  3963  05FE                     l304:
  3964  05FE  0008               	return
  3965  05FF                     __end_of_initialiseGPIO:
  3966                           
  3967                           	psect	text14
  3968  05FF                     __ptext14:	
  3969 ;; *************** function _initialiseADCPin *****************
  3970 ;; Defined at:
  3971 ;;		line 37 in file "ADC.c"
  3972 ;; Parameters:    Size  Location     Type
  3973 ;;  gpioNumber      1    wreg     const enum E2798
  3974 ;; Auto vars:     Size  Location     Type
  3975 ;;  gpioNumber      1    5[BANK1 ] const enum E2798
  3976 ;;  portNumber      1    4[BANK1 ] unsigned char 
  3977 ;;  portType        1    3[BANK1 ] unsigned char 
  3978 ;;  gpioValid       1    2[BANK1 ] unsigned char 
  3979 ;; Return value:  Size  Location     Type
  3980 ;;                  1    wreg      void 
  3981 ;; Registers used:
  3982 ;;		wreg, status,2, status,0
  3983 ;; Tracked objects:
  3984 ;;		On entry : 0/0
  3985 ;;		On exit  : 0/0
  3986 ;;		Unchanged: 0/0
  3987 ;; Data sizes:     COMMON   BANK0   BANK1   BANK2   BANK3   BANK4
  3988 ;;      Params:         0       0       0       0       0       0
  3989 ;;      Locals:         0       0       4       0       0       0
  3990 ;;      Temps:          0       0       2       0       0       0
  3991 ;;      Totals:         0       0       6       0       0       0
  3992 ;;Total ram usage:        6 bytes
  3993 ;; Hardware stack levels used: 1
  3994 ;; Hardware stack levels required when called: 5
  3995 ;; This function calls:
  3996 ;;		Nothing
  3997 ;; This function is called by:
  3998 ;;		_initialisePotentiometers
  3999 ;;		_initialiseController
  4000 ;;		_initialiseCurrentSensors
  4001 ;; This function uses a non-reentrant model
  4002 ;;
  4003                           
  4004  05FF                     _initialiseADCPin:	
  4005                           ;psect for function _initialiseADCPin
  4006                           
  4007                           
  4008                           ;incstack = 0
  4009                           ; Regs used in _initialiseADCPin: [wreg+status,2+status,0]
  4010                           ;initialiseADCPin@gpioNumber stored from wreg
  4011  05FF  0021               	movlb	1	; select bank1
  4012  0600  00D7               	movwf	initialiseADCPin@gpioNumber^(0+128)
  4013  0601                     l2164:
  4014                           
  4015                           ;ADC.c: 39:     uint8_t portNumber = 0;
  4016  0601  01D6               	clrf	initialiseADCPin@portNumber^(0+128)
  4017                           
  4018                           ;ADC.c: 40:     uint8_t portType = 0;
  4019  0602  01D5               	clrf	initialiseADCPin@portType^(0+128)
  4020                           
  4021                           ;ADC.c: 41:     uint8_t gpioValid = 0;
  4022  0603  01D4               	clrf	initialiseADCPin@gpioValid^(0+128)
  4023  0604                     l2166:
  4024                           
  4025                           ;ADC.c: 43:     if(gpioNumber < 4){
  4026  0604  3004               	movlw	4
  4027  0605  0257               	subwf	initialiseADCPin@gpioNumber^(0+128),w
  4028  0606  1803               	skipnc
  4029  0607  2E09               	goto	u1721
  4030  0608  2E0A               	goto	u1720
  4031  0609                     u1721:
  4032  0609  2E11               	goto	l2174
  4033  060A                     u1720:
  4034  060A                     l2168:
  4035                           
  4036                           ;ADC.c: 44:         portNumber = gpioNumber;
  4037  060A  0857               	movf	initialiseADCPin@gpioNumber^(0+128),w
  4038  060B  00D2               	movwf	??_initialiseADCPin^(0+128)
  4039  060C  0852               	movf	??_initialiseADCPin^(0+128),w
  4040  060D  00D6               	movwf	initialiseADCPin@portNumber^(0+128)
  4041  060E                     l2170:
  4042                           
  4043                           ;ADC.c: 45:         portType = 0;
  4044  060E  01D5               	clrf	initialiseADCPin@portType^(0+128)
  4045  060F                     l2172:
  4046                           
  4047                           ;ADC.c: 46:         gpioValid = 1;
  4048  060F  01D4               	clrf	initialiseADCPin@gpioValid^(0+128)
  4049  0610  0AD4               	incf	initialiseADCPin@gpioValid^(0+128),f
  4050  0611                     l2174:
  4051                           
  4052                           ;ADC.c: 49:     if((gpioNumber > 8u) && (gpioNumber <= 15u)){
  4053  0611  3009               	movlw	9
  4054  0612  0257               	subwf	initialiseADCPin@gpioNumber^(0+128),w
  4055  0613  1C03               	skipc
  4056  0614  2E16               	goto	u1731
  4057  0615  2E17               	goto	u1730
  4058  0616                     u1731:
  4059  0616  2E26               	goto	l236
  4060  0617                     u1730:
  4061  0617                     l2176:
  4062  0617  3010               	movlw	16
  4063  0618  0257               	subwf	initialiseADCPin@gpioNumber^(0+128),w
  4064  0619  1803               	skipnc
  4065  061A  2E1C               	goto	u1741
  4066  061B  2E1D               	goto	u1740
  4067  061C                     u1741:
  4068  061C  2E26               	goto	l236
  4069  061D                     u1740:
  4070  061D                     l2178:
  4071                           
  4072                           ;ADC.c: 50:         portNumber = gpioNumber - 8;
  4073  061D  0857               	movf	initialiseADCPin@gpioNumber^(0+128),w
  4074  061E  3EF8               	addlw	248
  4075  061F  00D2               	movwf	??_initialiseADCPin^(0+128)
  4076  0620  0852               	movf	??_initialiseADCPin^(0+128),w
  4077  0621  00D6               	movwf	initialiseADCPin@portNumber^(0+128)
  4078  0622                     l2180:
  4079                           
  4080                           ;ADC.c: 51:         portType = 1;
  4081  0622  01D5               	clrf	initialiseADCPin@portType^(0+128)
  4082  0623  0AD5               	incf	initialiseADCPin@portType^(0+128),f
  4083  0624                     l2182:
  4084                           
  4085                           ;ADC.c: 52:         gpioValid = 1;
  4086  0624  01D4               	clrf	initialiseADCPin@gpioValid^(0+128)
  4087  0625  0AD4               	incf	initialiseADCPin@gpioValid^(0+128),f
  4088  0626                     l236:	
  4089                           ;ADC.c: 53:     }
  4090                           
  4091                           
  4092                           ;ADC.c: 55:     if(gpioValid){
  4093  0626  0854               	movf	initialiseADCPin@gpioValid^(0+128),w
  4094  0627  1903               	btfsc	3,2
  4095  0628  2E2A               	goto	u1751
  4096  0629  2E2B               	goto	u1750
  4097  062A                     u1751:
  4098  062A  2E64               	goto	l241
  4099  062B                     u1750:
  4100  062B                     l2184:
  4101                           
  4102                           ;ADC.c: 56:         if(portType == 0){
  4103  062B  0855               	movf	initialiseADCPin@portType^(0+128),w
  4104  062C  1D03               	btfss	3,2
  4105  062D  2E2F               	goto	u1761
  4106  062E  2E30               	goto	u1760
  4107  062F                     u1761:
  4108  062F  2E48               	goto	l2188
  4109  0630                     u1760:
  4110  0630                     l2186:
  4111                           
  4112                           ;ADC.c: 57:             TRISA |= (1 << (uint8_t)portNumber);
  4113  0630  3001               	movlw	1
  4114  0631  00D2               	movwf	??_initialiseADCPin^(0+128)
  4115  0632  0A56               	incf	initialiseADCPin@portNumber^(0+128),w
  4116  0633  2E35               	goto	u1774
  4117  0634                     u1775:
  4118  0634  35D2               	lslf	??_initialiseADCPin^(0+128),f
  4119  0635                     u1774:
  4120  0635  0B89               	decfsz	9,f
  4121  0636  2E34               	goto	u1775
  4122  0637  0852               	movf	??_initialiseADCPin^(0+128),w
  4123  0638  00D3               	movwf	(??_initialiseADCPin+1)^(0+128)
  4124  0639  0853               	movf	(??_initialiseADCPin+1)^(0+128),w
  4125  063A  048C               	iorwf	12,f	;volatile
  4126                           
  4127                           ;ADC.c: 58:             ANSELA |= (1 << (uint8_t)portNumber);
  4128  063B  3001               	movlw	1
  4129  063C  00D2               	movwf	??_initialiseADCPin^(0+128)
  4130  063D  0A56               	incf	initialiseADCPin@portNumber^(0+128),w
  4131  063E  2E40               	goto	u1784
  4132  063F                     u1785:
  4133  063F  35D2               	lslf	??_initialiseADCPin^(0+128),f
  4134  0640                     u1784:
  4135  0640  0B89               	decfsz	9,f
  4136  0641  2E3F               	goto	u1785
  4137  0642  0852               	movf	??_initialiseADCPin^(0+128),w
  4138  0643  00D3               	movwf	(??_initialiseADCPin+1)^(0+128)
  4139  0644  0853               	movf	(??_initialiseADCPin+1)^(0+128),w
  4140  0645  0023               	movlb	3	; select bank3
  4141  0646  048C               	iorwf	12,f	;volatile
  4142                           
  4143                           ;ADC.c: 59:         }
  4144  0647  2E64               	goto	l241
  4145  0648                     l2188:
  4146  0648  0355               	decf	initialiseADCPin@portType^(0+128),w
  4147  0649  1D03               	btfss	3,2
  4148  064A  2E4C               	goto	u1791
  4149  064B  2E4D               	goto	u1790
  4150  064C                     u1791:
  4151  064C  2E64               	goto	l241
  4152  064D                     u1790:
  4153  064D                     l2190:
  4154                           
  4155                           ;ADC.c: 61:             TRISB |= (1 << (uint8_t)portNumber);
  4156  064D  3001               	movlw	1
  4157  064E  00D2               	movwf	??_initialiseADCPin^(0+128)
  4158  064F  0A56               	incf	initialiseADCPin@portNumber^(0+128),w
  4159  0650  2E52               	goto	u1804
  4160  0651                     u1805:
  4161  0651  35D2               	lslf	??_initialiseADCPin^(0+128),f
  4162  0652                     u1804:
  4163  0652  0B89               	decfsz	9,f
  4164  0653  2E51               	goto	u1805
  4165  0654  0852               	movf	??_initialiseADCPin^(0+128),w
  4166  0655  00D3               	movwf	(??_initialiseADCPin+1)^(0+128)
  4167  0656  0853               	movf	(??_initialiseADCPin+1)^(0+128),w
  4168  0657  048D               	iorwf	13,f	;volatile
  4169                           
  4170                           ;ADC.c: 62:             ANSELB |= (1 << (uint8_t)portNumber);
  4171  0658  3001               	movlw	1
  4172  0659  00D2               	movwf	??_initialiseADCPin^(0+128)
  4173  065A  0A56               	incf	initialiseADCPin@portNumber^(0+128),w
  4174  065B  2E5D               	goto	u1814
  4175  065C                     u1815:
  4176  065C  35D2               	lslf	??_initialiseADCPin^(0+128),f
  4177  065D                     u1814:
  4178  065D  0B89               	decfsz	9,f
  4179  065E  2E5C               	goto	u1815
  4180  065F  0852               	movf	??_initialiseADCPin^(0+128),w
  4181  0660  00D3               	movwf	(??_initialiseADCPin+1)^(0+128)
  4182  0661  0853               	movf	(??_initialiseADCPin+1)^(0+128),w
  4183  0662  0023               	movlb	3	; select bank3
  4184  0663  048D               	iorwf	13,f	;volatile
  4185  0664                     l241:
  4186  0664  0008               	return
  4187  0665                     __end_of_initialiseADCPin:
  4188                           
  4189                           	psect	text15
  4190  0BE0                     __ptext15:	
  4191 ;; *************** function _initialiseADCModule *****************
  4192 ;; Defined at:
  4193 ;;		line 14 in file "ADC.c"
  4194 ;; Parameters:    Size  Location     Type
  4195 ;;		None
  4196 ;; Auto vars:     Size  Location     Type
  4197 ;;		None
  4198 ;; Return value:  Size  Location     Type
  4199 ;;                  1    wreg      void 
  4200 ;; Registers used:
  4201 ;;		wreg
  4202 ;; Tracked objects:
  4203 ;;		On entry : 0/0
  4204 ;;		On exit  : 0/0
  4205 ;;		Unchanged: 0/0
  4206 ;; Data sizes:     COMMON   BANK0   BANK1   BANK2   BANK3   BANK4
  4207 ;;      Params:         0       0       0       0       0       0
  4208 ;;      Locals:         0       0       0       0       0       0
  4209 ;;      Temps:          0       0       0       0       0       0
  4210 ;;      Totals:         0       0       0       0       0       0
  4211 ;;Total ram usage:        0 bytes
  4212 ;; Hardware stack levels used: 1
  4213 ;; Hardware stack levels required when called: 5
  4214 ;; This function calls:
  4215 ;;		Nothing
  4216 ;; This function is called by:
  4217 ;;		_main
  4218 ;; This function uses a non-reentrant model
  4219 ;;
  4220                           
  4221  0BE0                     _initialiseADCModule:	
  4222                           ;psect for function _initialiseADCModule
  4223                           
  4224  0BE0                     l2630:	
  4225                           ;incstack = 0
  4226                           ; Regs used in _initialiseADCModule: [wreg]
  4227                           
  4228                           
  4229                           ;ADC.c: 16:     ADCON0 = 0b00000001;
  4230  0BE0  3001               	movlw	1
  4231  0BE1  0021               	movlb	1	; select bank1
  4232  0BE2  009D               	movwf	29	;volatile
  4233                           
  4234                           ;ADC.c: 22:     ADCON1 = 0b10010000;
  4235  0BE3  3090               	movlw	144
  4236  0BE4  009E               	movwf	30	;volatile
  4237  0BE5                     l232:
  4238  0BE5  0008               	return
  4239  0BE6                     __end_of_initialiseADCModule:
  4240                           
  4241                           	psect	intentry
  4242  0004                     __pintentry:	
  4243 ;; *************** function _Tick490Hz *****************
  4244 ;; Defined at:
  4245 ;;		line 42 in file "main.c"
  4246 ;; Parameters:    Size  Location     Type
  4247 ;;		None
  4248 ;; Auto vars:     Size  Location     Type
  4249 ;;		None
  4250 ;; Return value:  Size  Location     Type
  4251 ;;                  1    wreg      void 
  4252 ;; Registers used:
  4253 ;;		wreg, fsr0l, fsr0h, fsr1l, fsr1h, status,2, status,0, pclath, cstack
  4254 ;; Tracked objects:
  4255 ;;		On entry : 0/0
  4256 ;;		On exit  : 0/0
  4257 ;;		Unchanged: 0/0
  4258 ;; Data sizes:     COMMON   BANK0   BANK1   BANK2   BANK3   BANK4
  4259 ;;      Params:         0       0       0       0       0       0
  4260 ;;      Locals:         0       0       0       0       0       0
  4261 ;;      Temps:          0       1       0       0       0       0
  4262 ;;      Totals:         0       1       0       0       0       0
  4263 ;;Total ram usage:        1 bytes
  4264 ;; Hardware stack levels used: 1
  4265 ;; Hardware stack levels required when called: 4
  4266 ;; This function calls:
  4267 ;;		_controlRoutine
  4268 ;;		_currentTripMonitor
  4269 ;;		_readFilteredDutyPot
  4270 ;;		_readFilteredFreqPot
  4271 ;;		_readFilteredIL
  4272 ;;		_readFilteredVout
  4273 ;;		_runPotScaling
  4274 ;;		_setPWMDutyandPeriod
  4275 ;;		i1_writeGPIO
  4276 ;; This function is called by:
  4277 ;;		Interrupt level 1
  4278 ;; This function uses a non-reentrant model
  4279 ;;
  4280                           
  4281  0004                     _Tick490Hz:
  4282                           
  4283                           ;incstack = 0
  4284  0004  147E               	bsf	int$flags,0	;set compiler interrupt flag (level 1)
  4285                           
  4286                           ; Regs used in _Tick490Hz: [wreg-fsr1h+status,2+status,0+pclath+cstack]
  4287  0005  3180               	pagesel	$
  4288  0006                     i1l2686:
  4289                           
  4290                           ;main.c: 53:         writeGPIO(pinRB4, 1);
  4291  0006  01F0               	clrf	i1writeGPIO@writeValue
  4292  0007  0AF0               	incf	i1writeGPIO@writeValue,f
  4293  0008  300C               	movlw	12
  4294  0009  3186  26C5  3180   	fcall	i1_writeGPIO
  4295                           
  4296                           ;main.c: 54:         currentTripMonitor();
  4297  000C  3187  27DA  3180   	fcall	_currentTripMonitor
  4298                           
  4299                           ;main.c: 55:         setPWMDutyandPeriod(setDuty, setPeriod);
  4300  000F  0020               	movlb	0	; select bank0
  4301  0010  0864               	movf	_setDuty+1,w
  4302  0011  00F1               	movwf	setPWMDutyandPeriod@dutyCycle+1
  4303  0012  0863               	movf	_setDuty,w
  4304  0013  00F0               	movwf	setPWMDutyandPeriod@dutyCycle
  4305  0014  086E               	movf	_setPeriod,w
  4306  0015  00DE               	movwf	??_Tick490Hz
  4307  0016  085E               	movf	??_Tick490Hz,w
  4308  0017  00F2               	movwf	setPWMDutyandPeriod@period
  4309  0018  318C  24C0  3180   	fcall	_setPWMDutyandPeriod
  4310  001B                     i1l2688:
  4311                           
  4312                           ;main.c: 58:         if(timerSlotHalf == 0){
  4313  001B  0020               	movlb	0	; select bank0
  4314  001C  0867               	movf	_timerSlotHalf,w	;volatile
  4315  001D  1D03               	btfss	3,2
  4316  001E  2820               	goto	u245_21
  4317  001F  2821               	goto	u245_20
  4318  0020                     u245_21:
  4319  0020  2829               	goto	i1l2694
  4320  0021                     u245_20:
  4321  0021                     i1l2690:
  4322                           
  4323                           ;main.c: 60:             controlRoutine();
  4324  0021  3183  23F9  3180   	fcall	_controlRoutine
  4325  0024                     i1l2692:
  4326                           
  4327                           ;main.c: 61:             writeGPIO(pinRB4, 0);
  4328  0024  01F0               	clrf	i1writeGPIO@writeValue
  4329  0025  300C               	movlw	12
  4330  0026  3186  26C5  3180   	fcall	i1_writeGPIO
  4331  0029                     i1l2694:
  4332                           
  4333                           ;main.c: 64:         if(timerSlotHalf == 1){
  4334  0029  0020               	movlb	0	; select bank0
  4335  002A  0367               	decf	_timerSlotHalf,w	;volatile
  4336  002B  1D03               	btfss	3,2
  4337  002C  282E               	goto	u246_21
  4338  002D  282F               	goto	u246_20
  4339  002E                     u246_21:
  4340  002E  2878               	goto	i1l2716
  4341  002F                     u246_20:
  4342  002F                     i1l2696:
  4343                           
  4344                           ;main.c: 66:             writeGPIO(pinRB5, 1);
  4345  002F  01F0               	clrf	i1writeGPIO@writeValue
  4346  0030  0AF0               	incf	i1writeGPIO@writeValue,f
  4347  0031  300D               	movlw	13
  4348  0032  3186  26C5  3180   	fcall	i1_writeGPIO
  4349  0035                     i1l2698:
  4350                           
  4351                           ;main.c: 67:             filteredIL = readFilteredIL();
  4352  0035  318E  2698  3180   	fcall	_readFilteredIL
  4353  0038  0871               	movf	?_readFilteredIL+1,w
  4354  0039  0021               	movlb	1	; select bank1
  4355  003A  00B1               	movwf	(_filteredIL+1)^(0+128)
  4356  003B  0870               	movf	?_readFilteredIL,w
  4357  003C  00B0               	movwf	_filteredIL^(0+128)
  4358  003D                     i1l2700:
  4359                           
  4360                           ;main.c: 69:             filteredVout = readFilteredVout();
  4361  003D  3187  2724  3180   	fcall	_readFilteredVout
  4362  0040  087B               	movf	?_readFilteredVout+1,w
  4363  0041  0020               	movlb	0	; select bank0
  4364  0042  00E0               	movwf	_filteredVout+1
  4365  0043  087A               	movf	?_readFilteredVout,w
  4366  0044  00DF               	movwf	_filteredVout
  4367  0045                     i1l2702:
  4368                           
  4369                           ;main.c: 72:             if(timerSlotQuarter == 0){
  4370  0045  0866               	movf	_timerSlotQuarter,w	;volatile
  4371  0046  1D03               	btfss	3,2
  4372  0047  2849               	goto	u247_21
  4373  0048  284A               	goto	u247_20
  4374  0049                     u247_21:
  4375  0049  284D               	goto	i1l2706
  4376  004A                     u247_20:
  4377  004A                     i1l2704:
  4378                           
  4379                           ;main.c: 74:                 runPotScaling();
  4380  004A  3183  230D  3180   	fcall	_runPotScaling
  4381  004D                     i1l2706:
  4382                           
  4383                           ;main.c: 77:             if(timerSlotQuarter == 1){
  4384  004D  0020               	movlb	0	; select bank0
  4385  004E  0366               	decf	_timerSlotQuarter,w	;volatile
  4386  004F  1D03               	btfss	3,2
  4387  0050  2852               	goto	u248_21
  4388  0051  2853               	goto	u248_20
  4389  0052                     u248_21:
  4390  0052  2863               	goto	i1l2710
  4391  0053                     u248_20:
  4392  0053                     i1l2708:
  4393                           
  4394                           ;main.c: 79:                 filteredDutyPot = readFilteredDutyPot();
  4395  0053  318F  27A5  3180   	fcall	_readFilteredDutyPot
  4396  0056  087B               	movf	?_readFilteredDutyPot+1,w
  4397  0057  0021               	movlb	1	; select bank1
  4398  0058  00AD               	movwf	(_filteredDutyPot+1)^(0+128)
  4399  0059  087A               	movf	?_readFilteredDutyPot,w
  4400  005A  00AC               	movwf	_filteredDutyPot^(0+128)
  4401                           
  4402                           ;main.c: 80:                 filteredFreqPot = readFilteredFreqPot();
  4403  005B  3187  277F  3180   	fcall	_readFilteredFreqPot
  4404  005E  087B               	movf	?_readFilteredFreqPot+1,w
  4405  005F  0021               	movlb	1	; select bank1
  4406  0060  00AF               	movwf	(_filteredFreqPot+1)^(0+128)
  4407  0061  087A               	movf	?_readFilteredFreqPot,w
  4408  0062  00AE               	movwf	_filteredFreqPot^(0+128)
  4409  0063                     i1l2710:
  4410                           
  4411                           ;main.c: 83:             timerSlotQuarter = ~timerSlotQuarter;
  4412  0063  0020               	movlb	0	; select bank0
  4413  0064  0366               	decf	_timerSlotQuarter,w	;volatile
  4414  0065  1D03               	btfss	3,2
  4415  0066  2868               	goto	u249_21
  4416  0067  286A               	goto	u249_20
  4417  0068                     u249_21:
  4418  0068  3001               	movlw	1
  4419  0069  286B               	goto	u250_20
  4420  006A                     u249_20:
  4421  006A  3000               	movlw	0
  4422  006B                     u250_20:
  4423  006B  00DE               	movwf	??_Tick490Hz
  4424  006C  085E               	movf	??_Tick490Hz,w
  4425  006D  00E6               	movwf	_timerSlotQuarter	;volatile
  4426  006E                     i1l2712:
  4427                           
  4428                           ;main.c: 84:             writeGPIO(pinRB4, 0);
  4429  006E  01F0               	clrf	i1writeGPIO@writeValue
  4430  006F  300C               	movlw	12
  4431  0070  3186  26C5  3180   	fcall	i1_writeGPIO
  4432  0073                     i1l2714:
  4433                           
  4434                           ;main.c: 85:             writeGPIO(pinRB5, 0);
  4435  0073  01F0               	clrf	i1writeGPIO@writeValue
  4436  0074  300D               	movlw	13
  4437  0075  3186  26C5  3180   	fcall	i1_writeGPIO
  4438  0078                     i1l2716:
  4439                           
  4440                           ;main.c: 88:         timerSlotHalf = ~timerSlotHalf;
  4441  0078  0020               	movlb	0	; select bank0
  4442  0079  0367               	decf	_timerSlotHalf,w	;volatile
  4443  007A  1D03               	btfss	3,2
  4444  007B  287D               	goto	u251_21
  4445  007C  287F               	goto	u251_20
  4446  007D                     u251_21:
  4447  007D  3001               	movlw	1
  4448  007E  2880               	goto	u252_20
  4449  007F                     u251_20:
  4450  007F  3000               	movlw	0
  4451  0080                     u252_20:
  4452  0080  00DE               	movwf	??_Tick490Hz
  4453  0081  085E               	movf	??_Tick490Hz,w
  4454  0082  00E7               	movwf	_timerSlotHalf	;volatile
  4455  0083                     i1l2718:
  4456                           
  4457                           ;main.c: 89:         INTCONbits.TMR0IF = 0;
  4458  0083  110B               	bcf	11,2	;volatile
  4459  0084                     i1l108:
  4460  0084  107E               	bcf	int$flags,0	;clear compiler interrupt flag (level 1)
  4461  0085  0009               	retfie
  4462  0086                     __end_of_Tick490Hz:
  4463                           
  4464                           	psect	text17
  4465  0CC0                     __ptext17:	
  4466 ;; *************** function _setPWMDutyandPeriod *****************
  4467 ;; Defined at:
  4468 ;;		line 49 in file "PWM.c"
  4469 ;; Parameters:    Size  Location     Type
  4470 ;;  dutyCycle       2    0[COMMON] unsigned short 
  4471 ;;  period          1    2[COMMON] unsigned char 
  4472 ;; Auto vars:     Size  Location     Type
  4473 ;;		None
  4474 ;; Return value:  Size  Location     Type
  4475 ;;                  1    wreg      void 
  4476 ;; Registers used:
  4477 ;;		wreg, status,2, status,0
  4478 ;; Tracked objects:
  4479 ;;		On entry : 0/0
  4480 ;;		On exit  : 0/0
  4481 ;;		Unchanged: 0/0
  4482 ;; Data sizes:     COMMON   BANK0   BANK1   BANK2   BANK3   BANK4
  4483 ;;      Params:         3       0       0       0       0       0
  4484 ;;      Locals:         0       0       0       0       0       0
  4485 ;;      Temps:          2       0       0       0       0       0
  4486 ;;      Totals:         5       0       0       0       0       0
  4487 ;;Total ram usage:        5 bytes
  4488 ;; Hardware stack levels used: 1
  4489 ;; This function calls:
  4490 ;;		Nothing
  4491 ;; This function is called by:
  4492 ;;		_Tick490Hz
  4493 ;; This function uses a non-reentrant model
  4494 ;;
  4495                           
  4496  0CC0                     _setPWMDutyandPeriod:	
  4497                           ;psect for function _setPWMDutyandPeriod
  4498                           
  4499  0CC0                     i1l2344:	
  4500                           ;incstack = 0
  4501                           ; Regs used in _setPWMDutyandPeriod: [wreg+status,2+status,0]
  4502                           
  4503                           
  4504                           ;PWM.c: 50:     PR2 = period;
  4505  0CC0  0872               	movf	setPWMDutyandPeriod@period,w
  4506  0CC1  0020               	movlb	0	; select bank0
  4507  0CC2  009B               	movwf	27	;volatile
  4508  0CC3                     i1l2346:
  4509                           
  4510                           ;PWM.c: 51:     CCPR1L = dutyCycle >> 2;
  4511  0CC3  0871               	movf	setPWMDutyandPeriod@dutyCycle+1,w
  4512  0CC4  00F4               	movwf	??_setPWMDutyandPeriod+1
  4513  0CC5  0870               	movf	setPWMDutyandPeriod@dutyCycle,w
  4514  0CC6  00F3               	movwf	??_setPWMDutyandPeriod
  4515  0CC7  36F4               	lsrf	??_setPWMDutyandPeriod+1,f
  4516  0CC8  0CF3               	rrf	??_setPWMDutyandPeriod,f
  4517  0CC9  36F4               	lsrf	??_setPWMDutyandPeriod+1,f
  4518  0CCA  0CF3               	rrf	??_setPWMDutyandPeriod,f
  4519  0CCB  0873               	movf	??_setPWMDutyandPeriod,w
  4520  0CCC  0025               	movlb	5	; select bank5
  4521  0CCD  0091               	movwf	17	;volatile
  4522  0CCE                     i1l2348:
  4523                           
  4524                           ;PWM.c: 52:     CCP1CONbits.DC1B0 = dutyCycle & 1;
  4525  0CCE  0870               	movf	setPWMDutyandPeriod@dutyCycle,w
  4526  0CCF  3901               	andlw	1
  4527  0CD0  00F3               	movwf	??_setPWMDutyandPeriod
  4528  0CD1  0EF3               	swapf	??_setPWMDutyandPeriod,f
  4529  0CD2  0813               	movf	19,w	;volatile
  4530  0CD3  0673               	xorwf	??_setPWMDutyandPeriod,w
  4531  0CD4  39EF               	andlw	-17
  4532  0CD5  0673               	xorwf	??_setPWMDutyandPeriod,w
  4533  0CD6  0093               	movwf	19	;volatile
  4534                           
  4535                           ;PWM.c: 53:     CCP1CONbits.DC1B1 = (dutyCycle & 2) > 1;
  4536  0CD7  3002               	movlw	2
  4537  0CD8  0570               	andwf	setPWMDutyandPeriod@dutyCycle,w
  4538  0CD9  00F3               	movwf	??_setPWMDutyandPeriod
  4539  0CDA  3000               	movlw	0
  4540  0CDB  0571               	andwf	setPWMDutyandPeriod@dutyCycle+1,w
  4541  0CDC  00F4               	movwf	??_setPWMDutyandPeriod+1
  4542  0CDD  3000               	movlw	0
  4543  0CDE  0274               	subwf	??_setPWMDutyandPeriod+1,w
  4544  0CDF  3002               	movlw	2
  4545  0CE0  1903               	skipnz
  4546  0CE1  0273               	subwf	??_setPWMDutyandPeriod,w
  4547  0CE2  1803               	skipnc
  4548  0CE3  2CE5               	goto	u215_21
  4549  0CE4  2CE8               	goto	u215_20
  4550  0CE5                     u215_21:
  4551  0CE5  0025               	movlb	5	; select bank5
  4552  0CE6  1693               	bsf	19,5	;volatile
  4553  0CE7  2CEA               	goto	u216_24
  4554  0CE8                     u215_20:
  4555  0CE8  0025               	movlb	5	; select bank5
  4556  0CE9  1293               	bcf	19,5	;volatile
  4557  0CEA                     u216_24:
  4558  0CEA                     i1l175:
  4559  0CEA  0008               	return
  4560  0CEB                     __end_of_setPWMDutyandPeriod:
  4561                           
  4562                           	psect	text18
  4563  030D                     __ptext18:	
  4564 ;; *************** function _runPotScaling *****************
  4565 ;; Defined at:
  4566 ;;		line 55 in file "Potentiometer.c"
  4567 ;; Parameters:    Size  Location     Type
  4568 ;;		None
  4569 ;; Auto vars:     Size  Location     Type
  4570 ;;  minDuty         2   16[BANK0 ] unsigned short 
  4571 ;;  maxDuty         2   14[BANK0 ] unsigned short 
  4572 ;; Return value:  Size  Location     Type
  4573 ;;                  1    wreg      void 
  4574 ;; Registers used:
  4575 ;;		wreg, status,2, status,0, pclath, cstack
  4576 ;; Tracked objects:
  4577 ;;		On entry : 0/0
  4578 ;;		On exit  : 0/0
  4579 ;;		Unchanged: 0/0
  4580 ;; Data sizes:     COMMON   BANK0   BANK1   BANK2   BANK3   BANK4
  4581 ;;      Params:         0       0       0       0       0       0
  4582 ;;      Locals:         0       4       0       0       0       0
  4583 ;;      Temps:          0       8       0       0       0       0
  4584 ;;      Totals:         0      12       0       0       0       0
  4585 ;;Total ram usage:       12 bytes
  4586 ;; Hardware stack levels used: 1
  4587 ;; Hardware stack levels required when called: 1
  4588 ;; This function calls:
  4589 ;;		___lldiv
  4590 ;;		___lmul
  4591 ;;		___wmul
  4592 ;; This function is called by:
  4593 ;;		_Tick490Hz
  4594 ;; This function uses a non-reentrant model
  4595 ;;
  4596                           
  4597  030D                     _runPotScaling:	
  4598                           ;psect for function _runPotScaling
  4599                           
  4600  030D                     i1l2440:	
  4601                           ;incstack = 0
  4602                           ; Regs used in _runPotScaling: [wreg+status,2+status,0+pclath+cstack]
  4603                           
  4604                           
  4605                           ;Potentiometer.c: 57:     if(currentState == potControl){
  4606  030D  0020               	movlb	0	; select bank0
  4607  030E  036C               	decf	_currentState,w
  4608  030F  1D03               	btfss	3,2
  4609  0310  2B12               	goto	u228_21
  4610  0311  2B13               	goto	u228_20
  4611  0312                     u228_21:
  4612  0312  2BF8               	goto	i1l377
  4613  0313                     u228_20:
  4614  0313                     i1l2442:
  4615                           
  4616                           ;Potentiometer.c: 58:         potSetCount++;
  4617  0313  3001               	movlw	1
  4618  0314  00A6               	movwf	??_runPotScaling
  4619  0315  0826               	movf	??_runPotScaling,w
  4620  0316  07E8               	addwf	_potSetCount,f
  4621                           
  4622                           ;Potentiometer.c: 60:         if(potSetCount == 32){
  4623  0317  3020               	movlw	32
  4624  0318  0668               	xorwf	_potSetCount,w
  4625  0319  1D03               	btfss	3,2
  4626  031A  2B1C               	goto	u229_21
  4627  031B  2B1D               	goto	u229_20
  4628  031C                     u229_21:
  4629  031C  2BF8               	goto	i1l377
  4630  031D                     u229_20:
  4631  031D                     i1l2444:
  4632                           
  4633                           ;Potentiometer.c: 62:             setPeriod = ((uint32_t)((filteredFreqPot - 51) * (uint
      +                          32_t)(180u - 15u)) >> 10 ) + 15u;
  4634  031D  0021               	movlb	1	; select bank1
  4635  031E  082E               	movf	_filteredFreqPot^(0+128),w
  4636  031F  3ECD               	addlw	205
  4637  0320  00F0               	movwf	___lmul@multiplier
  4638  0321  30FF               	movlw	255
  4639  0322  3D2F               	addwfc	(_filteredFreqPot+1)^(0+128),w
  4640  0323  00F1               	movwf	___lmul@multiplier+1
  4641  0324  01F2               	clrf	___lmul@multiplier+2
  4642  0325  01F3               	clrf	___lmul@multiplier+3
  4643  0326  3000               	movlw	0
  4644  0327  00F7               	movwf	___lmul@multiplicand+3
  4645  0328  3000               	movlw	0
  4646  0329  00F6               	movwf	___lmul@multiplicand+2
  4647  032A  3000               	movlw	0
  4648  032B  00F5               	movwf	___lmul@multiplicand+1
  4649  032C  30A5               	movlw	165
  4650  032D  00F4               	movwf	___lmul@multiplicand
  4651  032E  318D  2518  3183   	fcall	___lmul
  4652  0331  0870               	movf	?___lmul,w
  4653  0332  0020               	movlb	0	; select bank0
  4654  0333  00A6               	movwf	??_runPotScaling
  4655  0334  0871               	movf	?___lmul+1,w
  4656  0335  00A7               	movwf	??_runPotScaling+1
  4657  0336  0872               	movf	?___lmul+2,w
  4658  0337  00A8               	movwf	??_runPotScaling+2
  4659  0338  0873               	movf	?___lmul+3,w
  4660  0339  00A9               	movwf	??_runPotScaling+3
  4661  033A  300A               	movlw	10
  4662  033B                     u230_25:
  4663  033B  36A9               	lsrf	??_runPotScaling+3,f
  4664  033C  0CA8               	rrf	??_runPotScaling+2,f
  4665  033D  0CA7               	rrf	??_runPotScaling+1,f
  4666  033E  0CA6               	rrf	??_runPotScaling,f
  4667  033F                     u230_20:
  4668  033F  0B89               	decfsz	9,f
  4669  0340  2B3B               	goto	u230_25
  4670  0341  0826               	movf	??_runPotScaling,w
  4671  0342  3E0F               	addlw	15
  4672  0343  00AA               	movwf	??_runPotScaling+4
  4673  0344  082A               	movf	??_runPotScaling+4,w
  4674  0345  00EE               	movwf	_setPeriod
  4675                           
  4676                           ;Potentiometer.c: 64:             setDuty = (uint32_t)((uint32_t)((filteredDutyPot-51) *
      +                           (uint32_t)setPeriod )) >> 8;
  4677  0346  0021               	movlb	1	; select bank1
  4678  0347  082C               	movf	_filteredDutyPot^(0+128),w
  4679  0348  3ECD               	addlw	205
  4680  0349  00F0               	movwf	___lmul@multiplier
  4681  034A  30FF               	movlw	255
  4682  034B  3D2D               	addwfc	(_filteredDutyPot+1)^(0+128),w
  4683  034C  00F1               	movwf	___lmul@multiplier+1
  4684  034D  01F2               	clrf	___lmul@multiplier+2
  4685  034E  01F3               	clrf	___lmul@multiplier+3
  4686  034F  0020               	movlb	0	; select bank0
  4687  0350  086E               	movf	_setPeriod,w
  4688  0351  00A6               	movwf	??_runPotScaling
  4689  0352  01A7               	clrf	??_runPotScaling+1
  4690  0353  01A8               	clrf	??_runPotScaling+2
  4691  0354  01A9               	clrf	??_runPotScaling+3
  4692  0355  0829               	movf	??_runPotScaling+3,w
  4693  0356  00F7               	movwf	___lmul@multiplicand+3
  4694  0357  0828               	movf	??_runPotScaling+2,w
  4695  0358  00F6               	movwf	___lmul@multiplicand+2
  4696  0359  0827               	movf	??_runPotScaling+1,w
  4697  035A  00F5               	movwf	___lmul@multiplicand+1
  4698  035B  0826               	movf	??_runPotScaling,w
  4699  035C  00F4               	movwf	___lmul@multiplicand
  4700  035D  318D  2518  3183   	fcall	___lmul
  4701  0360  0870               	movf	?___lmul,w
  4702  0361  0020               	movlb	0	; select bank0
  4703  0362  00AA               	movwf	??_runPotScaling+4
  4704  0363  0871               	movf	?___lmul+1,w
  4705  0364  00AB               	movwf	??_runPotScaling+5
  4706  0365  0872               	movf	?___lmul+2,w
  4707  0366  00AC               	movwf	??_runPotScaling+6
  4708  0367  0873               	movf	?___lmul+3,w
  4709  0368  00AD               	movwf	??_runPotScaling+7
  4710  0369  3008               	movlw	8
  4711  036A                     u231_25:
  4712  036A  36AD               	lsrf	??_runPotScaling+7,f
  4713  036B  0CAC               	rrf	??_runPotScaling+6,f
  4714  036C  0CAB               	rrf	??_runPotScaling+5,f
  4715  036D  0CAA               	rrf	??_runPotScaling+4,f
  4716  036E                     u231_20:
  4717  036E  0B89               	decfsz	9,f
  4718  036F  2B6A               	goto	u231_25
  4719  0370  082B               	movf	??_runPotScaling+5,w
  4720  0371  00E4               	movwf	_setDuty+1
  4721  0372  082A               	movf	??_runPotScaling+4,w
  4722  0373  00E3               	movwf	_setDuty
  4723  0374                     i1l2446:
  4724                           
  4725                           ;Potentiometer.c: 65:             setDuty = (4*setPeriod) - setDuty;
  4726  0374  086E               	movf	_setPeriod,w
  4727  0375  00A6               	movwf	??_runPotScaling
  4728  0376  01A7               	clrf	??_runPotScaling+1
  4729  0377  35A6               	lslf	??_runPotScaling,f
  4730  0378  0DA7               	rlf	??_runPotScaling+1,f
  4731  0379  35A6               	lslf	??_runPotScaling,f
  4732  037A  0DA7               	rlf	??_runPotScaling+1,f
  4733  037B  0863               	movf	_setDuty,w
  4734  037C  0226               	subwf	??_runPotScaling,w
  4735  037D  00E3               	movwf	_setDuty
  4736  037E  0864               	movf	_setDuty+1,w
  4737  037F  3B27               	subwfb	??_runPotScaling+1,w
  4738  0380  00E4               	movwf	_setDuty+1
  4739  0381                     i1l2448:
  4740                           
  4741                           ;Potentiometer.c: 68:             uint16_t maxDuty = (uint16_t) (((uint32_t)(((uint16_t)
      +                           90) * setPeriod)) / 25);
  4742  0381  3000               	movlw	0
  4743  0382  00F9               	movwf	___lldiv@divisor+3
  4744  0383  3000               	movlw	0
  4745  0384  00F8               	movwf	___lldiv@divisor+2
  4746  0385  3000               	movlw	0
  4747  0386  00F7               	movwf	___lldiv@divisor+1
  4748  0387  3019               	movlw	25
  4749  0388  00F6               	movwf	___lldiv@divisor
  4750  0389  305A               	movlw	90
  4751  038A  00F2               	movwf	___wmul@multiplicand
  4752  038B  3000               	movlw	0
  4753  038C  00F3               	movwf	___wmul@multiplicand+1
  4754  038D  086E               	movf	_setPeriod,w
  4755  038E  00A6               	movwf	??_runPotScaling
  4756  038F  01A7               	clrf	??_runPotScaling+1
  4757  0390  0826               	movf	??_runPotScaling,w
  4758  0391  00F0               	movwf	___wmul@multiplier
  4759  0392  0827               	movf	??_runPotScaling+1,w
  4760  0393  00F1               	movwf	___wmul@multiplier+1
  4761  0394  318C  2481  3183   	fcall	___wmul
  4762  0397  0870               	movf	?___wmul,w
  4763  0398  0020               	movlb	0	; select bank0
  4764  0399  00A8               	movwf	??_runPotScaling+2
  4765  039A  0871               	movf	?___wmul+1,w
  4766  039B  00A9               	movwf	??_runPotScaling+3
  4767  039C  01AA               	clrf	??_runPotScaling+4
  4768  039D  01AB               	clrf	??_runPotScaling+5
  4769  039E  082B               	movf	??_runPotScaling+5,w
  4770  039F  00FD               	movwf	___lldiv@dividend+3
  4771  03A0  082A               	movf	??_runPotScaling+4,w
  4772  03A1  00FC               	movwf	___lldiv@dividend+2
  4773  03A2  0829               	movf	??_runPotScaling+3,w
  4774  03A3  00FB               	movwf	___lldiv@dividend+1
  4775  03A4  0828               	movf	??_runPotScaling+2,w
  4776  03A5  00FA               	movwf	___lldiv@dividend
  4777  03A6  318F  274A  3183   	fcall	___lldiv
  4778  03A9  0877               	movf	?___lldiv+1,w
  4779  03AA  0020               	movlb	0	; select bank0
  4780  03AB  00AF               	movwf	runPotScaling@maxDuty+1
  4781  03AC  0876               	movf	?___lldiv,w
  4782  03AD  00AE               	movwf	runPotScaling@maxDuty
  4783  03AE                     i1l2450:
  4784                           
  4785                           ;Potentiometer.c: 69:             uint16_t minDuty = (uint16_t) (((uint32_t)(((uint16_t)
      +                           10) * setPeriod)) / 25);
  4786  03AE  3000               	movlw	0
  4787  03AF  00F9               	movwf	___lldiv@divisor+3
  4788  03B0  3000               	movlw	0
  4789  03B1  00F8               	movwf	___lldiv@divisor+2
  4790  03B2  3000               	movlw	0
  4791  03B3  00F7               	movwf	___lldiv@divisor+1
  4792  03B4  3019               	movlw	25
  4793  03B5  00F6               	movwf	___lldiv@divisor
  4794  03B6  300A               	movlw	10
  4795  03B7  00F2               	movwf	___wmul@multiplicand
  4796  03B8  3000               	movlw	0
  4797  03B9  00F3               	movwf	___wmul@multiplicand+1
  4798  03BA  086E               	movf	_setPeriod,w
  4799  03BB  00A6               	movwf	??_runPotScaling
  4800  03BC  01A7               	clrf	??_runPotScaling+1
  4801  03BD  0826               	movf	??_runPotScaling,w
  4802  03BE  00F0               	movwf	___wmul@multiplier
  4803  03BF  0827               	movf	??_runPotScaling+1,w
  4804  03C0  00F1               	movwf	___wmul@multiplier+1
  4805  03C1  318C  2481  3183   	fcall	___wmul
  4806  03C4  0870               	movf	?___wmul,w
  4807  03C5  0020               	movlb	0	; select bank0
  4808  03C6  00A8               	movwf	??_runPotScaling+2
  4809  03C7  0871               	movf	?___wmul+1,w
  4810  03C8  00A9               	movwf	??_runPotScaling+3
  4811  03C9  01AA               	clrf	??_runPotScaling+4
  4812  03CA  01AB               	clrf	??_runPotScaling+5
  4813  03CB  082B               	movf	??_runPotScaling+5,w
  4814  03CC  00FD               	movwf	___lldiv@dividend+3
  4815  03CD  082A               	movf	??_runPotScaling+4,w
  4816  03CE  00FC               	movwf	___lldiv@dividend+2
  4817  03CF  0829               	movf	??_runPotScaling+3,w
  4818  03D0  00FB               	movwf	___lldiv@dividend+1
  4819  03D1  0828               	movf	??_runPotScaling+2,w
  4820  03D2  00FA               	movwf	___lldiv@dividend
  4821  03D3  318F  274A  3183   	fcall	___lldiv
  4822  03D6  0877               	movf	?___lldiv+1,w
  4823  03D7  0020               	movlb	0	; select bank0
  4824  03D8  00B1               	movwf	runPotScaling@minDuty+1
  4825  03D9  0876               	movf	?___lldiv,w
  4826  03DA  00B0               	movwf	runPotScaling@minDuty
  4827  03DB                     i1l2452:
  4828                           
  4829                           ;Potentiometer.c: 70:             if(setDuty > maxDuty) setDuty = maxDuty;
  4830  03DB  0864               	movf	_setDuty+1,w
  4831  03DC  022F               	subwf	runPotScaling@maxDuty+1,w
  4832  03DD  1D03               	skipz
  4833  03DE  2BE1               	goto	u232_25
  4834  03DF  0863               	movf	_setDuty,w
  4835  03E0  022E               	subwf	runPotScaling@maxDuty,w
  4836  03E1                     u232_25:
  4837  03E1  1803               	skipnc
  4838  03E2  2BE4               	goto	u232_21
  4839  03E3  2BE5               	goto	u232_20
  4840  03E4                     u232_21:
  4841  03E4  2BE9               	goto	i1l375
  4842  03E5                     u232_20:
  4843  03E5                     i1l2454:
  4844  03E5  082F               	movf	runPotScaling@maxDuty+1,w
  4845  03E6  00E4               	movwf	_setDuty+1
  4846  03E7  082E               	movf	runPotScaling@maxDuty,w
  4847  03E8  00E3               	movwf	_setDuty
  4848  03E9                     i1l375:
  4849                           
  4850                           ;Potentiometer.c: 71:             if(setDuty < minDuty) setDuty = minDuty;
  4851  03E9  0831               	movf	runPotScaling@minDuty+1,w
  4852  03EA  0264               	subwf	_setDuty+1,w
  4853  03EB  1D03               	skipz
  4854  03EC  2BEF               	goto	u233_25
  4855  03ED  0830               	movf	runPotScaling@minDuty,w
  4856  03EE  0263               	subwf	_setDuty,w
  4857  03EF                     u233_25:
  4858  03EF  1803               	skipnc
  4859  03F0  2BF2               	goto	u233_21
  4860  03F1  2BF3               	goto	u233_20
  4861  03F2                     u233_21:
  4862  03F2  2BF7               	goto	i1l2458
  4863  03F3                     u233_20:
  4864  03F3                     i1l2456:
  4865  03F3  0831               	movf	runPotScaling@minDuty+1,w
  4866  03F4  00E4               	movwf	_setDuty+1
  4867  03F5  0830               	movf	runPotScaling@minDuty,w
  4868  03F6  00E3               	movwf	_setDuty
  4869  03F7                     i1l2458:
  4870                           
  4871                           ;Potentiometer.c: 73:             potSetCount = 0;
  4872  03F7  01E8               	clrf	_potSetCount
  4873  03F8                     i1l377:
  4874  03F8  0008               	return
  4875  03F9                     __end_of_runPotScaling:
  4876                           
  4877                           	psect	text19
  4878  0724                     __ptext19:	
  4879 ;; *************** function _readFilteredVout *****************
  4880 ;; Defined at:
  4881 ;;		line 39 in file "Controller.c"
  4882 ;; Parameters:    Size  Location     Type
  4883 ;;		None
  4884 ;; Auto vars:     Size  Location     Type
  4885 ;;  i               1    8[BANK0 ] unsigned char 
  4886 ;;  i               1    9[BANK0 ] unsigned char 
  4887 ;;  sumOfSamples    4    4[BANK0 ] unsigned long 
  4888 ;; Return value:  Size  Location     Type
  4889 ;;                  2   10[COMMON] unsigned short 
  4890 ;; Registers used:
  4891 ;;		wreg, fsr0l, fsr0h, fsr1l, fsr1h, status,2, status,0, pclath, cstack
  4892 ;; Tracked objects:
  4893 ;;		On entry : 0/0
  4894 ;;		On exit  : 0/0
  4895 ;;		Unchanged: 0/0
  4896 ;; Data sizes:     COMMON   BANK0   BANK1   BANK2   BANK3   BANK4
  4897 ;;      Params:         2       0       0       0       0       0
  4898 ;;      Locals:         0       6       0       0       0       0
  4899 ;;      Temps:          0       4       0       0       0       0
  4900 ;;      Totals:         2      10       0       0       0       0
  4901 ;;Total ram usage:       12 bytes
  4902 ;; Hardware stack levels used: 1
  4903 ;; Hardware stack levels required when called: 1
  4904 ;; This function calls:
  4905 ;;		_readADCRaw
  4906 ;; This function is called by:
  4907 ;;		_Tick490Hz
  4908 ;; This function uses a non-reentrant model
  4909 ;;
  4910                           
  4911  0724                     _readFilteredVout:	
  4912                           ;psect for function _readFilteredVout
  4913                           
  4914  0724                     i1l2408:	
  4915                           ;incstack = 0
  4916                           ; Regs used in _readFilteredVout: [wreg-fsr1h+status,2+status,0+pclath+cstack]
  4917                           
  4918                           
  4919                           ;Controller.c: 40:     for(uint8_t i=0; i<16u -1; i++) voutFIFO[i] = voutFIFO[i+1];
  4920  0724  0020               	movlb	0	; select bank0
  4921  0725  01A9               	clrf	readFilteredVout@i
  4922  0726                     i1l2414:
  4923  0726  3529               	lslf	readFilteredVout@i,w
  4924  0727  3EC2               	addlw	(low ((_voutFIFO| (0+256)+2)))& (0+255)
  4925  0728  0086               	movwf	6
  4926  0729  3001               	movlw	1	; select bank3/4
  4927  072A  0087               	movwf	7
  4928  072B  3529               	lslf	readFilteredVout@i,w
  4929  072C  3EC0               	addlw	(low (_voutFIFO| (0+256)))& (0+255)
  4930  072D  0084               	movwf	4
  4931  072E  3001               	movlw	1	; select bank3/4
  4932  072F  0085               	movwf	5
  4933  0730  3F40               	moviw [0]fsr1
  4934  0731  3F80               	movwi [0]fsr0
  4935  0732  3F41               	moviw [1]fsr1
  4936  0733  3F81               	movwi [1]fsr0
  4937  0734                     i1l2416:
  4938  0734  3001               	movlw	1
  4939  0735  00A0               	movwf	??_readFilteredVout
  4940  0736  0820               	movf	??_readFilteredVout,w
  4941  0737  07A9               	addwf	readFilteredVout@i,f
  4942  0738                     i1l2418:
  4943  0738  300F               	movlw	15
  4944  0739  0229               	subwf	readFilteredVout@i,w
  4945  073A  1C03               	skipc
  4946  073B  2F3D               	goto	u225_21
  4947  073C  2F3E               	goto	u225_20
  4948  073D                     u225_21:
  4949  073D  2F26               	goto	i1l2414
  4950  073E                     u225_20:
  4951  073E                     i1l2420:
  4952                           
  4953                           ;Controller.c: 41:     voutFIFO[16u -1] = readADCRaw(pinRA4);
  4954  073E  3004               	movlw	4
  4955  073F  318E  26F0  3187   	fcall	_readADCRaw
  4956  0742  0871               	movf	?_readADCRaw+1,w
  4957  0743  0023               	movlb	3	; select bank3
  4958  0744  00DF               	movwf	((_voutFIFO+1)^(0+384)+30)
  4959  0745  0870               	movf	?_readADCRaw,w
  4960  0746  00DE               	movwf	(_voutFIFO^(0+384)+30)
  4961  0747                     i1l2422:
  4962                           
  4963                           ;Controller.c: 42:     uint32_t sumOfSamples = 0;
  4964  0747  3000               	movlw	0
  4965  0748  0020               	movlb	0	; select bank0
  4966  0749  00A7               	movwf	readFilteredVout@sumOfSamples+3
  4967  074A  3000               	movlw	0
  4968  074B  00A6               	movwf	readFilteredVout@sumOfSamples+2
  4969  074C  3000               	movlw	0
  4970  074D  00A5               	movwf	readFilteredVout@sumOfSamples+1
  4971  074E  3000               	movlw	0
  4972  074F  00A4               	movwf	readFilteredVout@sumOfSamples
  4973  0750                     i1l2424:
  4974                           
  4975                           ;Controller.c: 43:     for(uint8_t i=0; i<16u; i++) sumOfSamples += voutFIFO[i];
  4976  0750  01A8               	clrf	readFilteredVout@i_831
  4977  0751                     i1l2430:
  4978  0751  3528               	lslf	readFilteredVout@i_831,w
  4979  0752  3EC0               	addlw	(low (_voutFIFO| (0+256)))& (0+255)
  4980  0753  0086               	movwf	6
  4981  0754  3001               	movlw	1	; select bank3/4
  4982  0755  0087               	movwf	7
  4983  0756  3F40               	moviw [0]fsr1
  4984  0757  00A0               	movwf	??_readFilteredVout
  4985  0758  3F41               	moviw [1]fsr1
  4986  0759  00A1               	movwf	??_readFilteredVout+1
  4987  075A  0820               	movf	??_readFilteredVout,w
  4988  075B  07A4               	addwf	readFilteredVout@sumOfSamples,f
  4989  075C  0821               	movf	??_readFilteredVout+1,w
  4990  075D  3DA5               	addwfc	readFilteredVout@sumOfSamples+1,f
  4991  075E  3000               	movlw	0
  4992  075F  3DA6               	addwfc	readFilteredVout@sumOfSamples+2,f
  4993  0760  3DA7               	addwfc	readFilteredVout@sumOfSamples+3,f
  4994  0761                     i1l2432:
  4995  0761  3001               	movlw	1
  4996  0762  00A0               	movwf	??_readFilteredVout
  4997  0763  0820               	movf	??_readFilteredVout,w
  4998  0764  07A8               	addwf	readFilteredVout@i_831,f
  4999  0765                     i1l2434:
  5000  0765  3010               	movlw	16
  5001  0766  0228               	subwf	readFilteredVout@i_831,w
  5002  0767  1C03               	skipc
  5003  0768  2F6A               	goto	u226_21
  5004  0769  2F6B               	goto	u226_20
  5005  076A                     u226_21:
  5006  076A  2F51               	goto	i1l2430
  5007  076B                     u226_20:
  5008  076B                     i1l2436:
  5009                           
  5010                           ;Controller.c: 45:     return (sumOfSamples >> 4u);
  5011  076B  0824               	movf	readFilteredVout@sumOfSamples,w
  5012  076C  00A0               	movwf	??_readFilteredVout
  5013  076D  0825               	movf	readFilteredVout@sumOfSamples+1,w
  5014  076E  00A1               	movwf	??_readFilteredVout+1
  5015  076F  0826               	movf	readFilteredVout@sumOfSamples+2,w
  5016  0770  00A2               	movwf	??_readFilteredVout+2
  5017  0771  0827               	movf	readFilteredVout@sumOfSamples+3,w
  5018  0772  00A3               	movwf	??_readFilteredVout+3
  5019  0773  3004               	movlw	4
  5020  0774                     u227_25:
  5021  0774  36A3               	lsrf	??_readFilteredVout+3,f
  5022  0775  0CA2               	rrf	??_readFilteredVout+2,f
  5023  0776  0CA1               	rrf	??_readFilteredVout+1,f
  5024  0777  0CA0               	rrf	??_readFilteredVout,f
  5025  0778                     u227_20:
  5026  0778  0B89               	decfsz	9,f
  5027  0779  2F74               	goto	u227_25
  5028  077A  0821               	movf	??_readFilteredVout+1,w
  5029  077B  00FB               	movwf	?_readFilteredVout+1
  5030  077C  0820               	movf	??_readFilteredVout,w
  5031  077D  00FA               	movwf	?_readFilteredVout
  5032  077E                     i1l435:
  5033  077E  0008               	return
  5034  077F                     __end_of_readFilteredVout:
  5035                           
  5036                           	psect	text20
  5037  0E98                     __ptext20:	
  5038 ;; *************** function _readFilteredIL *****************
  5039 ;; Defined at:
  5040 ;;		line 56 in file "CurrentSensor.c"
  5041 ;; Parameters:    Size  Location     Type
  5042 ;;		None
  5043 ;; Auto vars:     Size  Location     Type
  5044 ;;  i               1   10[COMMON] unsigned char 
  5045 ;;  i               1   11[COMMON] unsigned char 
  5046 ;;  sumOfSamples    4    6[COMMON] unsigned long 
  5047 ;; Return value:  Size  Location     Type
  5048 ;;                  2    0[COMMON] unsigned short 
  5049 ;; Registers used:
  5050 ;;		wreg, fsr0l, fsr0h, fsr1l, fsr1h, status,2, status,0
  5051 ;; Tracked objects:
  5052 ;;		On entry : 0/0
  5053 ;;		On exit  : 0/0
  5054 ;;		Unchanged: 0/0
  5055 ;; Data sizes:     COMMON   BANK0   BANK1   BANK2   BANK3   BANK4
  5056 ;;      Params:         2       0       0       0       0       0
  5057 ;;      Locals:         6       0       0       0       0       0
  5058 ;;      Temps:          4       0       0       0       0       0
  5059 ;;      Totals:        12       0       0       0       0       0
  5060 ;;Total ram usage:       12 bytes
  5061 ;; Hardware stack levels used: 1
  5062 ;; This function calls:
  5063 ;;		Nothing
  5064 ;; This function is called by:
  5065 ;;		_Tick490Hz
  5066 ;; This function uses a non-reentrant model
  5067 ;;
  5068                           
  5069  0E98                     _readFilteredIL:	
  5070                           ;psect for function _readFilteredIL
  5071                           
  5072  0E98                     i1l2378:	
  5073                           ;incstack = 0
  5074                           ; Regs used in _readFilteredIL: [wreg-fsr1h+status,2+status,0]
  5075                           
  5076                           
  5077                           ;CurrentSensor.c: 57:     for(uint8_t i=0; i<16u -1; i++) currentILFIFO[i] = currentILFI
      +                          FO[i+1];
  5078  0E98  01FB               	clrf	readFilteredIL@i
  5079  0E99                     i1l2384:
  5080  0E99  357B               	lslf	readFilteredIL@i,w
  5081  0E9A  3E22               	addlw	(low ((_currentILFIFO| (0+256)+2)))& (0+255)
  5082  0E9B  0086               	movwf	6
  5083  0E9C  3001               	movlw	1	; select bank2/3
  5084  0E9D  0087               	movwf	7
  5085  0E9E  357B               	lslf	readFilteredIL@i,w
  5086  0E9F  3E20               	addlw	(low (_currentILFIFO| (0+256)))& (0+255)
  5087  0EA0  0084               	movwf	4
  5088  0EA1  3001               	movlw	1	; select bank2/3
  5089  0EA2  0085               	movwf	5
  5090  0EA3  3F40               	moviw [0]fsr1
  5091  0EA4  3F80               	movwi [0]fsr0
  5092  0EA5  3F41               	moviw [1]fsr1
  5093  0EA6  3F81               	movwi [1]fsr0
  5094  0EA7                     i1l2386:
  5095  0EA7  3001               	movlw	1
  5096  0EA8  00F2               	movwf	??_readFilteredIL
  5097  0EA9  0872               	movf	??_readFilteredIL,w
  5098  0EAA  07FB               	addwf	readFilteredIL@i,f
  5099  0EAB                     i1l2388:
  5100  0EAB  300F               	movlw	15
  5101  0EAC  027B               	subwf	readFilteredIL@i,w
  5102  0EAD  1C03               	skipc
  5103  0EAE  2EB0               	goto	u222_21
  5104  0EAF  2EB1               	goto	u222_20
  5105  0EB0                     u222_21:
  5106  0EB0  2E99               	goto	i1l2384
  5107  0EB1                     u222_20:
  5108  0EB1                     i1l2390:
  5109                           
  5110                           ;CurrentSensor.c: 58:     currentILFIFO[16u -1] = latestIL;
  5111  0EB1  0020               	movlb	0	; select bank0
  5112  0EB2  0862               	movf	_latestIL+1,w	;volatile
  5113  0EB3  0022               	movlb	2	; select bank2
  5114  0EB4  00BF               	movwf	((_currentILFIFO+1)^(0+256)+30)
  5115  0EB5  0020               	movlb	0	; select bank0
  5116  0EB6  0861               	movf	_latestIL,w	;volatile
  5117  0EB7  0022               	movlb	2	; select bank2
  5118  0EB8  00BE               	movwf	(_currentILFIFO^(0+256)+30)
  5119                           
  5120                           ;CurrentSensor.c: 59:     uint32_t sumOfSamples = 0;
  5121  0EB9  3000               	movlw	0
  5122  0EBA  00F9               	movwf	readFilteredIL@sumOfSamples+3
  5123  0EBB  3000               	movlw	0
  5124  0EBC  00F8               	movwf	readFilteredIL@sumOfSamples+2
  5125  0EBD  3000               	movlw	0
  5126  0EBE  00F7               	movwf	readFilteredIL@sumOfSamples+1
  5127  0EBF  3000               	movlw	0
  5128  0EC0  00F6               	movwf	readFilteredIL@sumOfSamples
  5129  0EC1                     i1l2392:
  5130                           
  5131                           ;CurrentSensor.c: 60:     for(uint8_t i=0; i<16u; i++) sumOfSamples += currentILFIFO[i];
  5132  0EC1  01FA               	clrf	readFilteredIL@i_921
  5133  0EC2                     i1l2398:
  5134  0EC2  357A               	lslf	readFilteredIL@i_921,w
  5135  0EC3  3E20               	addlw	(low (_currentILFIFO| (0+256)))& (0+255)
  5136  0EC4  0086               	movwf	6
  5137  0EC5  3001               	movlw	1	; select bank2/3
  5138  0EC6  0087               	movwf	7
  5139  0EC7  3F40               	moviw [0]fsr1
  5140  0EC8  00F2               	movwf	??_readFilteredIL
  5141  0EC9  3F41               	moviw [1]fsr1
  5142  0ECA  00F3               	movwf	??_readFilteredIL+1
  5143  0ECB  0872               	movf	??_readFilteredIL,w
  5144  0ECC  07F6               	addwf	readFilteredIL@sumOfSamples,f
  5145  0ECD  0873               	movf	??_readFilteredIL+1,w
  5146  0ECE  3DF7               	addwfc	readFilteredIL@sumOfSamples+1,f
  5147  0ECF  3000               	movlw	0
  5148  0ED0  3DF8               	addwfc	readFilteredIL@sumOfSamples+2,f
  5149  0ED1  3DF9               	addwfc	readFilteredIL@sumOfSamples+3,f
  5150  0ED2                     i1l2400:
  5151  0ED2  3001               	movlw	1
  5152  0ED3  00F2               	movwf	??_readFilteredIL
  5153  0ED4  0872               	movf	??_readFilteredIL,w
  5154  0ED5  07FA               	addwf	readFilteredIL@i_921,f
  5155  0ED6                     i1l2402:
  5156  0ED6  3010               	movlw	16
  5157  0ED7  027A               	subwf	readFilteredIL@i_921,w
  5158  0ED8  1C03               	skipc
  5159  0ED9  2EDB               	goto	u223_21
  5160  0EDA  2EDC               	goto	u223_20
  5161  0EDB                     u223_21:
  5162  0EDB  2EC2               	goto	i1l2398
  5163  0EDC                     u223_20:
  5164  0EDC                     i1l2404:
  5165                           
  5166                           ;CurrentSensor.c: 62:     return (sumOfSamples >> 4u);
  5167  0EDC  0876               	movf	readFilteredIL@sumOfSamples,w
  5168  0EDD  00F2               	movwf	??_readFilteredIL
  5169  0EDE  0877               	movf	readFilteredIL@sumOfSamples+1,w
  5170  0EDF  00F3               	movwf	??_readFilteredIL+1
  5171  0EE0  0878               	movf	readFilteredIL@sumOfSamples+2,w
  5172  0EE1  00F4               	movwf	??_readFilteredIL+2
  5173  0EE2  0879               	movf	readFilteredIL@sumOfSamples+3,w
  5174  0EE3  00F5               	movwf	??_readFilteredIL+3
  5175  0EE4  3004               	movlw	4
  5176  0EE5                     u224_25:
  5177  0EE5  36F5               	lsrf	??_readFilteredIL+3,f
  5178  0EE6  0CF4               	rrf	??_readFilteredIL+2,f
  5179  0EE7  0CF3               	rrf	??_readFilteredIL+1,f
  5180  0EE8  0CF2               	rrf	??_readFilteredIL,f
  5181  0EE9                     u224_20:
  5182  0EE9  0B89               	decfsz	9,f
  5183  0EEA  2EE5               	goto	u224_25
  5184  0EEB  0873               	movf	??_readFilteredIL+1,w
  5185  0EEC  00F1               	movwf	?_readFilteredIL+1
  5186  0EED  0872               	movf	??_readFilteredIL,w
  5187  0EEE  00F0               	movwf	?_readFilteredIL
  5188  0EEF                     i1l527:
  5189  0EEF  0008               	return
  5190  0EF0                     __end_of_readFilteredIL:
  5191                           
  5192                           	psect	text21
  5193  077F                     __ptext21:	
  5194 ;; *************** function _readFilteredFreqPot *****************
  5195 ;; Defined at:
  5196 ;;		line 39 in file "Potentiometer.c"
  5197 ;; Parameters:    Size  Location     Type
  5198 ;;		None
  5199 ;; Auto vars:     Size  Location     Type
  5200 ;;  i               1    8[BANK0 ] unsigned char 
  5201 ;;  i               1    9[BANK0 ] unsigned char 
  5202 ;;  sumOfSamples    4    4[BANK0 ] unsigned long 
  5203 ;; Return value:  Size  Location     Type
  5204 ;;                  2   10[COMMON] unsigned short 
  5205 ;; Registers used:
  5206 ;;		wreg, fsr0l, fsr0h, fsr1l, fsr1h, status,2, status,0, pclath, cstack
  5207 ;; Tracked objects:
  5208 ;;		On entry : 0/0
  5209 ;;		On exit  : 0/0
  5210 ;;		Unchanged: 0/0
  5211 ;; Data sizes:     COMMON   BANK0   BANK1   BANK2   BANK3   BANK4
  5212 ;;      Params:         2       0       0       0       0       0
  5213 ;;      Locals:         0       6       0       0       0       0
  5214 ;;      Temps:          0       4       0       0       0       0
  5215 ;;      Totals:         2      10       0       0       0       0
  5216 ;;Total ram usage:       12 bytes
  5217 ;; Hardware stack levels used: 1
  5218 ;; Hardware stack levels required when called: 1
  5219 ;; This function calls:
  5220 ;;		_readADCRaw
  5221 ;; This function is called by:
  5222 ;;		_Tick490Hz
  5223 ;; This function uses a non-reentrant model
  5224 ;;
  5225                           
  5226  077F                     _readFilteredFreqPot:	
  5227                           ;psect for function _readFilteredFreqPot
  5228                           
  5229  077F                     i1l2492:	
  5230                           ;incstack = 0
  5231                           ; Regs used in _readFilteredFreqPot: [wreg-fsr1h+status,2+status,0+pclath+cstack]
  5232                           
  5233                           
  5234                           ;Potentiometer.c: 40:     for(uint8_t i=0; i<16 -1; i++) freqPotFIFO[i] = freqPotFIFO[i+
      +                          1];
  5235  077F  0020               	movlb	0	; select bank0
  5236  0780  01A9               	clrf	readFilteredFreqPot@i
  5237  0781                     i1l2498:
  5238  0781  3529               	lslf	readFilteredFreqPot@i,w
  5239  0782  3EA2               	addlw	(low ((_freqPotFIFO| (0+256)+2)))& (0+255)
  5240  0783  0086               	movwf	6
  5241  0784  3001               	movlw	1	; select bank3/4
  5242  0785  0087               	movwf	7
  5243  0786  3529               	lslf	readFilteredFreqPot@i,w
  5244  0787  3EA0               	addlw	(low (_freqPotFIFO| (0+256)))& (0+255)
  5245  0788  0084               	movwf	4
  5246  0789  3001               	movlw	1	; select bank3/4
  5247  078A  0085               	movwf	5
  5248  078B  3F40               	moviw [0]fsr1
  5249  078C  3F80               	movwi [0]fsr0
  5250  078D  3F41               	moviw [1]fsr1
  5251  078E  3F81               	movwi [1]fsr0
  5252  078F                     i1l2500:
  5253  078F  3001               	movlw	1
  5254  0790  00A0               	movwf	??_readFilteredFreqPot
  5255  0791  0820               	movf	??_readFilteredFreqPot,w
  5256  0792  07A9               	addwf	readFilteredFreqPot@i,f
  5257  0793                     i1l2502:
  5258  0793  300F               	movlw	15
  5259  0794  0229               	subwf	readFilteredFreqPot@i,w
  5260  0795  1C03               	skipc
  5261  0796  2F98               	goto	u237_21
  5262  0797  2F99               	goto	u237_20
  5263  0798                     u237_21:
  5264  0798  2F81               	goto	i1l2498
  5265  0799                     u237_20:
  5266  0799                     i1l2504:
  5267                           
  5268                           ;Potentiometer.c: 41:     freqPotFIFO[16 -1] = readADCRaw(pinRB2);
  5269  0799  300A               	movlw	10
  5270  079A  318E  26F0  3187   	fcall	_readADCRaw
  5271  079D  0871               	movf	?_readADCRaw+1,w
  5272  079E  0023               	movlb	3	; select bank3
  5273  079F  00BF               	movwf	((_freqPotFIFO+1)^(0+384)+30)
  5274  07A0  0870               	movf	?_readADCRaw,w
  5275  07A1  00BE               	movwf	(_freqPotFIFO^(0+384)+30)
  5276  07A2                     i1l2506:
  5277                           
  5278                           ;Potentiometer.c: 42:     uint32_t sumOfSamples = 0;
  5279  07A2  3000               	movlw	0
  5280  07A3  0020               	movlb	0	; select bank0
  5281  07A4  00A7               	movwf	readFilteredFreqPot@sumOfSamples+3
  5282  07A5  3000               	movlw	0
  5283  07A6  00A6               	movwf	readFilteredFreqPot@sumOfSamples+2
  5284  07A7  3000               	movlw	0
  5285  07A8  00A5               	movwf	readFilteredFreqPot@sumOfSamples+1
  5286  07A9  3000               	movlw	0
  5287  07AA  00A4               	movwf	readFilteredFreqPot@sumOfSamples
  5288  07AB                     i1l2508:
  5289                           
  5290                           ;Potentiometer.c: 43:     for(uint8_t i=0; i<16; i++) sumOfSamples += freqPotFIFO[i];
  5291  07AB  01A8               	clrf	readFilteredFreqPot@i_754
  5292  07AC                     i1l2514:
  5293  07AC  3528               	lslf	readFilteredFreqPot@i_754,w
  5294  07AD  3EA0               	addlw	(low (_freqPotFIFO| (0+256)))& (0+255)
  5295  07AE  0086               	movwf	6
  5296  07AF  3001               	movlw	1	; select bank3/4
  5297  07B0  0087               	movwf	7
  5298  07B1  3F40               	moviw [0]fsr1
  5299  07B2  00A0               	movwf	??_readFilteredFreqPot
  5300  07B3  3F41               	moviw [1]fsr1
  5301  07B4  00A1               	movwf	??_readFilteredFreqPot+1
  5302  07B5  0820               	movf	??_readFilteredFreqPot,w
  5303  07B6  07A4               	addwf	readFilteredFreqPot@sumOfSamples,f
  5304  07B7  0821               	movf	??_readFilteredFreqPot+1,w
  5305  07B8  3DA5               	addwfc	readFilteredFreqPot@sumOfSamples+1,f
  5306  07B9  3000               	movlw	0
  5307  07BA  3DA6               	addwfc	readFilteredFreqPot@sumOfSamples+2,f
  5308  07BB  3DA7               	addwfc	readFilteredFreqPot@sumOfSamples+3,f
  5309  07BC                     i1l2516:
  5310  07BC  3001               	movlw	1
  5311  07BD  00A0               	movwf	??_readFilteredFreqPot
  5312  07BE  0820               	movf	??_readFilteredFreqPot,w
  5313  07BF  07A8               	addwf	readFilteredFreqPot@i_754,f
  5314  07C0                     i1l2518:
  5315  07C0  3010               	movlw	16
  5316  07C1  0228               	subwf	readFilteredFreqPot@i_754,w
  5317  07C2  1C03               	skipc
  5318  07C3  2FC5               	goto	u238_21
  5319  07C4  2FC6               	goto	u238_20
  5320  07C5                     u238_21:
  5321  07C5  2FAC               	goto	i1l2514
  5322  07C6                     u238_20:
  5323  07C6                     i1l2520:
  5324                           
  5325                           ;Potentiometer.c: 45:     return (sumOfSamples >> 4u);
  5326  07C6  0824               	movf	readFilteredFreqPot@sumOfSamples,w
  5327  07C7  00A0               	movwf	??_readFilteredFreqPot
  5328  07C8  0825               	movf	readFilteredFreqPot@sumOfSamples+1,w
  5329  07C9  00A1               	movwf	??_readFilteredFreqPot+1
  5330  07CA  0826               	movf	readFilteredFreqPot@sumOfSamples+2,w
  5331  07CB  00A2               	movwf	??_readFilteredFreqPot+2
  5332  07CC  0827               	movf	readFilteredFreqPot@sumOfSamples+3,w
  5333  07CD  00A3               	movwf	??_readFilteredFreqPot+3
  5334  07CE  3004               	movlw	4
  5335  07CF                     u239_25:
  5336  07CF  36A3               	lsrf	??_readFilteredFreqPot+3,f
  5337  07D0  0CA2               	rrf	??_readFilteredFreqPot+2,f
  5338  07D1  0CA1               	rrf	??_readFilteredFreqPot+1,f
  5339  07D2  0CA0               	rrf	??_readFilteredFreqPot,f
  5340  07D3                     u239_20:
  5341  07D3  0B89               	decfsz	9,f
  5342  07D4  2FCF               	goto	u239_25
  5343  07D5  0821               	movf	??_readFilteredFreqPot+1,w
  5344  07D6  00FB               	movwf	?_readFilteredFreqPot+1
  5345  07D7  0820               	movf	??_readFilteredFreqPot,w
  5346  07D8  00FA               	movwf	?_readFilteredFreqPot
  5347  07D9                     i1l370:
  5348  07D9  0008               	return
  5349  07DA                     __end_of_readFilteredFreqPot:
  5350                           
  5351                           	psect	text22
  5352  0FA5                     __ptext22:	
  5353 ;; *************** function _readFilteredDutyPot *****************
  5354 ;; Defined at:
  5355 ;;		line 25 in file "Potentiometer.c"
  5356 ;; Parameters:    Size  Location     Type
  5357 ;;		None
  5358 ;; Auto vars:     Size  Location     Type
  5359 ;;  i               1    8[BANK0 ] unsigned char 
  5360 ;;  i               1    9[BANK0 ] unsigned char 
  5361 ;;  sumOfSamples    4    4[BANK0 ] unsigned long 
  5362 ;; Return value:  Size  Location     Type
  5363 ;;                  2   10[COMMON] unsigned short 
  5364 ;; Registers used:
  5365 ;;		wreg, fsr0l, fsr0h, fsr1l, fsr1h, status,2, status,0, pclath, cstack
  5366 ;; Tracked objects:
  5367 ;;		On entry : 0/0
  5368 ;;		On exit  : 0/0
  5369 ;;		Unchanged: 0/0
  5370 ;; Data sizes:     COMMON   BANK0   BANK1   BANK2   BANK3   BANK4
  5371 ;;      Params:         2       0       0       0       0       0
  5372 ;;      Locals:         0       6       0       0       0       0
  5373 ;;      Temps:          0       4       0       0       0       0
  5374 ;;      Totals:         2      10       0       0       0       0
  5375 ;;Total ram usage:       12 bytes
  5376 ;; Hardware stack levels used: 1
  5377 ;; Hardware stack levels required when called: 1
  5378 ;; This function calls:
  5379 ;;		_readADCRaw
  5380 ;; This function is called by:
  5381 ;;		_Tick490Hz
  5382 ;; This function uses a non-reentrant model
  5383 ;;
  5384                           
  5385  0FA5                     _readFilteredDutyPot:	
  5386                           ;psect for function _readFilteredDutyPot
  5387                           
  5388  0FA5                     i1l2460:	
  5389                           ;incstack = 0
  5390                           ; Regs used in _readFilteredDutyPot: [wreg-fsr1h+status,2+status,0+pclath+cstack]
  5391                           
  5392                           
  5393                           ;Potentiometer.c: 26:     for(uint8_t i=0; i<16 -1; i++) dutyPotFIFO[i] = dutyPotFIFO[i+
      +                          1];
  5394  0FA5  0020               	movlb	0	; select bank0
  5395  0FA6  01A9               	clrf	readFilteredDutyPot@i
  5396  0FA7                     i1l2466:
  5397  0FA7  3529               	lslf	readFilteredDutyPot@i,w
  5398  0FA8  3E22               	addlw	(low ((_dutyPotFIFO| (0+512)+2)))& (0+255)
  5399  0FA9  0086               	movwf	6
  5400  0FAA  3002               	movlw	2	; select bank4/5
  5401  0FAB  0087               	movwf	7
  5402  0FAC  3529               	lslf	readFilteredDutyPot@i,w
  5403  0FAD  3E20               	addlw	(low (_dutyPotFIFO| (0+512)))& (0+255)
  5404  0FAE  0084               	movwf	4
  5405  0FAF  3002               	movlw	2	; select bank4/5
  5406  0FB0  0085               	movwf	5
  5407  0FB1  3F40               	moviw [0]fsr1
  5408  0FB2  3F80               	movwi [0]fsr0
  5409  0FB3  3F41               	moviw [1]fsr1
  5410  0FB4  3F81               	movwi [1]fsr0
  5411  0FB5                     i1l2468:
  5412  0FB5  3001               	movlw	1
  5413  0FB6  00A0               	movwf	??_readFilteredDutyPot
  5414  0FB7  0820               	movf	??_readFilteredDutyPot,w
  5415  0FB8  07A9               	addwf	readFilteredDutyPot@i,f
  5416  0FB9                     i1l2470:
  5417  0FB9  300F               	movlw	15
  5418  0FBA  0229               	subwf	readFilteredDutyPot@i,w
  5419  0FBB  1C03               	skipc
  5420  0FBC  2FBE               	goto	u234_21
  5421  0FBD  2FBF               	goto	u234_20
  5422  0FBE                     u234_21:
  5423  0FBE  2FA7               	goto	i1l2466
  5424  0FBF                     u234_20:
  5425  0FBF                     i1l2472:
  5426                           
  5427                           ;Potentiometer.c: 27:     dutyPotFIFO[16 -1] = readADCRaw(pinRB1);
  5428  0FBF  3009               	movlw	9
  5429  0FC0  318E  26F0  318F   	fcall	_readADCRaw
  5430  0FC3  0871               	movf	?_readADCRaw+1,w
  5431  0FC4  0024               	movlb	4	; select bank4
  5432  0FC5  00BF               	movwf	((_dutyPotFIFO+1)^(0+512)+30)
  5433  0FC6  0870               	movf	?_readADCRaw,w
  5434  0FC7  00BE               	movwf	(_dutyPotFIFO^(0+512)+30)
  5435  0FC8                     i1l2474:
  5436                           
  5437                           ;Potentiometer.c: 28:     uint32_t sumOfSamples = 0;
  5438  0FC8  3000               	movlw	0
  5439  0FC9  0020               	movlb	0	; select bank0
  5440  0FCA  00A7               	movwf	readFilteredDutyPot@sumOfSamples+3
  5441  0FCB  3000               	movlw	0
  5442  0FCC  00A6               	movwf	readFilteredDutyPot@sumOfSamples+2
  5443  0FCD  3000               	movlw	0
  5444  0FCE  00A5               	movwf	readFilteredDutyPot@sumOfSamples+1
  5445  0FCF  3000               	movlw	0
  5446  0FD0  00A4               	movwf	readFilteredDutyPot@sumOfSamples
  5447  0FD1                     i1l2476:
  5448                           
  5449                           ;Potentiometer.c: 29:     for(uint8_t i=0; i<16; i++) sumOfSamples += dutyPotFIFO[i];
  5450  0FD1  01A8               	clrf	readFilteredDutyPot@i_750
  5451  0FD2                     i1l2482:
  5452  0FD2  3528               	lslf	readFilteredDutyPot@i_750,w
  5453  0FD3  3E20               	addlw	(low (_dutyPotFIFO| (0+512)))& (0+255)
  5454  0FD4  0086               	movwf	6
  5455  0FD5  3002               	movlw	2	; select bank4/5
  5456  0FD6  0087               	movwf	7
  5457  0FD7  3F40               	moviw [0]fsr1
  5458  0FD8  00A0               	movwf	??_readFilteredDutyPot
  5459  0FD9  3F41               	moviw [1]fsr1
  5460  0FDA  00A1               	movwf	??_readFilteredDutyPot+1
  5461  0FDB  0820               	movf	??_readFilteredDutyPot,w
  5462  0FDC  07A4               	addwf	readFilteredDutyPot@sumOfSamples,f
  5463  0FDD  0821               	movf	??_readFilteredDutyPot+1,w
  5464  0FDE  3DA5               	addwfc	readFilteredDutyPot@sumOfSamples+1,f
  5465  0FDF  3000               	movlw	0
  5466  0FE0  3DA6               	addwfc	readFilteredDutyPot@sumOfSamples+2,f
  5467  0FE1  3DA7               	addwfc	readFilteredDutyPot@sumOfSamples+3,f
  5468  0FE2                     i1l2484:
  5469  0FE2  3001               	movlw	1
  5470  0FE3  00A0               	movwf	??_readFilteredDutyPot
  5471  0FE4  0820               	movf	??_readFilteredDutyPot,w
  5472  0FE5  07A8               	addwf	readFilteredDutyPot@i_750,f
  5473  0FE6                     i1l2486:
  5474  0FE6  3010               	movlw	16
  5475  0FE7  0228               	subwf	readFilteredDutyPot@i_750,w
  5476  0FE8  1C03               	skipc
  5477  0FE9  2FEB               	goto	u235_21
  5478  0FEA  2FEC               	goto	u235_20
  5479  0FEB                     u235_21:
  5480  0FEB  2FD2               	goto	i1l2482
  5481  0FEC                     u235_20:
  5482  0FEC                     i1l2488:
  5483                           
  5484                           ;Potentiometer.c: 31:     return (sumOfSamples >> 4u);
  5485  0FEC  0824               	movf	readFilteredDutyPot@sumOfSamples,w
  5486  0FED  00A0               	movwf	??_readFilteredDutyPot
  5487  0FEE  0825               	movf	readFilteredDutyPot@sumOfSamples+1,w
  5488  0FEF  00A1               	movwf	??_readFilteredDutyPot+1
  5489  0FF0  0826               	movf	readFilteredDutyPot@sumOfSamples+2,w
  5490  0FF1  00A2               	movwf	??_readFilteredDutyPot+2
  5491  0FF2  0827               	movf	readFilteredDutyPot@sumOfSamples+3,w
  5492  0FF3  00A3               	movwf	??_readFilteredDutyPot+3
  5493  0FF4  3004               	movlw	4
  5494  0FF5                     u236_25:
  5495  0FF5  36A3               	lsrf	??_readFilteredDutyPot+3,f
  5496  0FF6  0CA2               	rrf	??_readFilteredDutyPot+2,f
  5497  0FF7  0CA1               	rrf	??_readFilteredDutyPot+1,f
  5498  0FF8  0CA0               	rrf	??_readFilteredDutyPot,f
  5499  0FF9                     u236_20:
  5500  0FF9  0B89               	decfsz	9,f
  5501  0FFA  2FF5               	goto	u236_25
  5502  0FFB  0821               	movf	??_readFilteredDutyPot+1,w
  5503  0FFC  00FB               	movwf	?_readFilteredDutyPot+1
  5504  0FFD  0820               	movf	??_readFilteredDutyPot,w
  5505  0FFE  00FA               	movwf	?_readFilteredDutyPot
  5506  0FFF                     i1l363:
  5507  0FFF  0008               	return
  5508  1000                     __end_of_readFilteredDutyPot:
  5509                           
  5510                           	psect	text23
  5511  0EF0                     __ptext23:	
  5512 ;; *************** function _readADCRaw *****************
  5513 ;; Defined at:
  5514 ;;		line 71 in file "ADC.c"
  5515 ;; Parameters:    Size  Location     Type
  5516 ;;  gpioNumber      1    wreg     const enum E2798
  5517 ;; Auto vars:     Size  Location     Type
  5518 ;;  gpioNumber      1    9[COMMON] const enum E2798
  5519 ;;  i               1    8[COMMON] unsigned char 
  5520 ;;  returnValue     2    4[COMMON] unsigned int 
  5521 ;;  gpioValid       1    7[COMMON] unsigned char 
  5522 ;;  channel         1    6[COMMON] unsigned char 
  5523 ;; Return value:  Size  Location     Type
  5524 ;;                  2    0[COMMON] unsigned short 
  5525 ;; Registers used:
  5526 ;;		wreg, status,2, status,0
  5527 ;; Tracked objects:
  5528 ;;		On entry : 0/0
  5529 ;;		On exit  : 0/0
  5530 ;;		Unchanged: 0/0
  5531 ;; Data sizes:     COMMON   BANK0   BANK1   BANK2   BANK3   BANK4
  5532 ;;      Params:         2       0       0       0       0       0
  5533 ;;      Locals:         6       0       0       0       0       0
  5534 ;;      Temps:          2       0       0       0       0       0
  5535 ;;      Totals:        10       0       0       0       0       0
  5536 ;;Total ram usage:       10 bytes
  5537 ;; Hardware stack levels used: 1
  5538 ;; This function calls:
  5539 ;;		Nothing
  5540 ;; This function is called by:
  5541 ;;		_readFilteredDutyPot
  5542 ;;		_readFilteredFreqPot
  5543 ;;		_readFilteredVout
  5544 ;;		_readFilteredIDS
  5545 ;; This function uses a non-reentrant model
  5546 ;;
  5547                           
  5548  0EF0                     _readADCRaw:	
  5549                           ;psect for function _readADCRaw
  5550                           
  5551                           
  5552                           ;incstack = 0
  5553                           ; Regs used in _readADCRaw: [wreg+status,2+status,0]
  5554                           ;readADCRaw@gpioNumber stored from wreg
  5555  0EF0  00F9               	movwf	readADCRaw@gpioNumber
  5556  0EF1                     i1l2192:
  5557                           
  5558                           ;ADC.c: 72:     uint8_t channel = 0;
  5559  0EF1  01F6               	clrf	readADCRaw@channel
  5560                           
  5561                           ;ADC.c: 73:     uint8_t gpioValid = 0;
  5562  0EF2  01F7               	clrf	readADCRaw@gpioValid
  5563  0EF3                     i1l2194:
  5564                           
  5565                           ;ADC.c: 75:     if(gpioNumber <= 4){
  5566  0EF3  3005               	movlw	5
  5567  0EF4  0279               	subwf	readADCRaw@gpioNumber,w
  5568  0EF5  1803               	skipnc
  5569  0EF6  2EF8               	goto	u182_21
  5570  0EF7  2EF9               	goto	u182_20
  5571  0EF8                     u182_21:
  5572  0EF8  2EFF               	goto	i1l244
  5573  0EF9                     u182_20:
  5574  0EF9                     i1l2196:
  5575                           
  5576                           ;ADC.c: 76:         channel = gpioNumber;
  5577  0EF9  0879               	movf	readADCRaw@gpioNumber,w
  5578  0EFA  00F2               	movwf	??_readADCRaw
  5579  0EFB  0872               	movf	??_readADCRaw,w
  5580  0EFC  00F6               	movwf	readADCRaw@channel
  5581  0EFD                     i1l2198:
  5582                           
  5583                           ;ADC.c: 77:         gpioValid = 1;
  5584  0EFD  01F7               	clrf	readADCRaw@gpioValid
  5585  0EFE  0AF7               	incf	readADCRaw@gpioValid,f
  5586  0EFF                     i1l244:	
  5587                           ;ADC.c: 78:     }
  5588                           
  5589                           
  5590                           ;ADC.c: 79:     if((gpioNumber > 8u) && (gpioNumber <= 15u)){
  5591  0EFF  3009               	movlw	9
  5592  0F00  0279               	subwf	readADCRaw@gpioNumber,w
  5593  0F01  1C03               	skipc
  5594  0F02  2F04               	goto	u183_21
  5595  0F03  2F05               	goto	u183_20
  5596  0F04                     u183_21:
  5597  0F04  2F12               	goto	i1l245
  5598  0F05                     u183_20:
  5599  0F05                     i1l2200:
  5600  0F05  3010               	movlw	16
  5601  0F06  0279               	subwf	readADCRaw@gpioNumber,w
  5602  0F07  1803               	skipnc
  5603  0F08  2F0A               	goto	u184_21
  5604  0F09  2F0B               	goto	u184_20
  5605  0F0A                     u184_21:
  5606  0F0A  2F12               	goto	i1l245
  5607  0F0B                     u184_20:
  5608  0F0B                     i1l2202:
  5609                           
  5610                           ;ADC.c: 80:         channel = 12u - (gpioNumber - 8);
  5611  0F0B  0879               	movf	readADCRaw@gpioNumber,w
  5612  0F0C  3C14               	sublw	20
  5613  0F0D  00F2               	movwf	??_readADCRaw
  5614  0F0E  0872               	movf	??_readADCRaw,w
  5615  0F0F  00F6               	movwf	readADCRaw@channel
  5616  0F10                     i1l2204:
  5617                           
  5618                           ;ADC.c: 81:         gpioValid = 1;
  5619  0F10  01F7               	clrf	readADCRaw@gpioValid
  5620  0F11  0AF7               	incf	readADCRaw@gpioValid,f
  5621  0F12                     i1l245:	
  5622                           ;ADC.c: 82:     }
  5623                           
  5624                           
  5625                           ;ADC.c: 83:     if(gpioValid){
  5626  0F12  0877               	movf	readADCRaw@gpioValid,w
  5627  0F13  1903               	btfsc	3,2
  5628  0F14  2F16               	goto	u185_21
  5629  0F15  2F17               	goto	u185_20
  5630  0F16                     u185_21:
  5631  0F16  2F47               	goto	i1l2232
  5632  0F17                     u185_20:
  5633  0F17                     i1l2206:
  5634                           
  5635                           ;ADC.c: 85:         if(~ADCON0bits.GO_nDONE){
  5636  0F17  0021               	movlb	1	; select bank1
  5637  0F18  081D               	movf	29,w	;volatile
  5638  0F19                     i1l2208:
  5639                           
  5640                           ;ADC.c: 86:             ADCON0 &= ~(0b01111100);
  5641  0F19  3083               	movlw	131
  5642  0F1A  00F2               	movwf	??_readADCRaw
  5643  0F1B  0872               	movf	??_readADCRaw,w
  5644  0F1C  059D               	andwf	29,f	;volatile
  5645  0F1D                     i1l2210:
  5646                           
  5647                           ;ADC.c: 87:             ADCON0 |= (channel << 2);
  5648  0F1D  0876               	movf	readADCRaw@channel,w	;volatile
  5649  0F1E  00F2               	movwf	??_readADCRaw
  5650  0F1F  3001               	movlw	1
  5651  0F20                     u186_25:
  5652  0F20  35F2               	lslf	??_readADCRaw,f
  5653  0F21  3EFF               	addlw	-1
  5654  0F22  1D03               	skipz
  5655  0F23  2F20               	goto	u186_25
  5656  0F24  3572               	lslf	??_readADCRaw,w
  5657  0F25  00F3               	movwf	??_readADCRaw+1
  5658  0F26  0873               	movf	??_readADCRaw+1,w
  5659  0F27  049D               	iorwf	29,f	;volatile
  5660  0F28                     i1l2212:
  5661                           
  5662                           ;ADC.c: 88:             for(uint8_t i = 0; i < 16; i++);
  5663  0F28  01F8               	clrf	readADCRaw@i
  5664  0F29                     i1l2218:
  5665  0F29  3001               	movlw	1
  5666  0F2A  00F2               	movwf	??_readADCRaw
  5667  0F2B  0872               	movf	??_readADCRaw,w
  5668  0F2C  07F8               	addwf	readADCRaw@i,f
  5669  0F2D                     i1l2220:
  5670  0F2D  3010               	movlw	16
  5671  0F2E  0278               	subwf	readADCRaw@i,w
  5672  0F2F  1C03               	skipc
  5673  0F30  2F32               	goto	u187_21
  5674  0F31  2F33               	goto	u187_20
  5675  0F32                     u187_21:
  5676  0F32  2F29               	goto	i1l2218
  5677  0F33                     u187_20:
  5678  0F33                     i1l249:
  5679                           
  5680                           ;ADC.c: 90:             ADCON0bits.GO_nDONE = 1;
  5681  0F33  0021               	movlb	1	; select bank1
  5682  0F34  149D               	bsf	29,1	;volatile
  5683  0F35                     i1l250:	
  5684                           ;ADC.c: 91:             while(ADCON0bits.GO_nDONE);
  5685                           
  5686  0F35  189D               	btfsc	29,1	;volatile
  5687  0F36  2F38               	goto	u188_21
  5688  0F37  2F39               	goto	u188_20
  5689  0F38                     u188_21:
  5690  0F38  2F35               	goto	i1l250
  5691  0F39                     u188_20:
  5692  0F39                     i1l2222:
  5693                           
  5694                           ;ADC.c: 93:             unsigned int returnValue = ((ADRESH<<8)+ADRESL);
  5695  0F39  081C               	movf	28,w	;volatile
  5696  0F3A  00F5               	movwf	readADCRaw@returnValue+1
  5697  0F3B  081B               	movf	27,w	;volatile
  5698  0F3C  00F4               	movwf	readADCRaw@returnValue
  5699  0F3D                     i1l2224:
  5700                           
  5701                           ;ADC.c: 94:             ADCON0 &= ~(0b01111100);
  5702  0F3D  3083               	movlw	131
  5703  0F3E  00F2               	movwf	??_readADCRaw
  5704  0F3F  0872               	movf	??_readADCRaw,w
  5705  0F40  059D               	andwf	29,f	;volatile
  5706  0F41                     i1l2226:
  5707                           
  5708                           ;ADC.c: 95:             ADCON0 |= (0b010 << 2);
  5709  0F41  159D               	bsf	29,3	;volatile
  5710  0F42                     i1l2228:
  5711                           
  5712                           ;ADC.c: 98:             return returnValue;
  5713  0F42  0875               	movf	readADCRaw@returnValue+1,w
  5714  0F43  00F1               	movwf	?_readADCRaw+1
  5715  0F44  0874               	movf	readADCRaw@returnValue,w
  5716  0F45  00F0               	movwf	?_readADCRaw
  5717  0F46  2F49               	goto	i1l253
  5718  0F47                     i1l2232:
  5719  0F47  01F0               	clrf	?_readADCRaw
  5720  0F48  01F1               	clrf	?_readADCRaw+1
  5721  0F49                     i1l253:
  5722  0F49  0008               	return
  5723  0F4A                     __end_of_readADCRaw:
  5724                           
  5725                           	psect	text24
  5726  07DA                     __ptext24:	
  5727 ;; *************** function _currentTripMonitor *****************
  5728 ;; Defined at:
  5729 ;;		line 94 in file "CurrentSensor.c"
  5730 ;; Parameters:    Size  Location     Type
  5731 ;;		None
  5732 ;; Auto vars:     Size  Location     Type
  5733 ;;		None
  5734 ;; Return value:  Size  Location     Type
  5735 ;;                  2    4[None  ] int 
  5736 ;; Registers used:
  5737 ;;		wreg, status,2, status,0, pclath, cstack
  5738 ;; Tracked objects:
  5739 ;;		On entry : 0/0
  5740 ;;		On exit  : 0/0
  5741 ;;		Unchanged: 0/0
  5742 ;; Data sizes:     COMMON   BANK0   BANK1   BANK2   BANK3   BANK4
  5743 ;;      Params:         0       0       0       0       0       0
  5744 ;;      Locals:         0       0       0       0       0       0
  5745 ;;      Temps:          1       0       0       0       0       0
  5746 ;;      Totals:         1       0       0       0       0       0
  5747 ;;Total ram usage:        1 bytes
  5748 ;; Hardware stack levels used: 1
  5749 ;; Hardware stack levels required when called: 2
  5750 ;; This function calls:
  5751 ;;		_currentTripRead
  5752 ;;		_transToOverCurrentFault
  5753 ;;		i1_currentTripReset
  5754 ;; This function is called by:
  5755 ;;		_Tick490Hz
  5756 ;; This function uses a non-reentrant model
  5757 ;;
  5758                           
  5759  07DA                     _currentTripMonitor:	
  5760                           ;psect for function _currentTripMonitor
  5761                           
  5762  07DA                     i1l2332:	
  5763                           ;incstack = 0
  5764                           ; Regs used in _currentTripMonitor: [wreg+status,2+status,0+pclath+cstack]
  5765                           
  5766                           
  5767                           ;CurrentSensor.c: 96:         if(currentTripRead() == 1){
  5768  07DA  318C  24EB  3187   	fcall	_currentTripRead
  5769  07DD  3A01               	xorlw	1
  5770  07DE  1D03               	skipz
  5771  07DF  2FE1               	goto	u212_21
  5772  07E0  2FE2               	goto	u212_20
  5773  07E1                     u212_21:
  5774  07E1  2FF5               	goto	i1l2340
  5775  07E2                     u212_20:
  5776  07E2                     i1l2334:
  5777                           
  5778                           ;CurrentSensor.c: 97:         currentTripCount++;
  5779  07E2  3001               	movlw	1
  5780  07E3  00FB               	movwf	??_currentTripMonitor
  5781  07E4  087B               	movf	??_currentTripMonitor,w
  5782  07E5  0020               	movlb	0	; select bank0
  5783  07E6  07E9               	addwf	_currentTripCount,f
  5784                           
  5785                           ;CurrentSensor.c: 98:         if(currentTripCount == 3u){
  5786  07E7  3003               	movlw	3
  5787  07E8  0669               	xorwf	_currentTripCount,w
  5788  07E9  1D03               	btfss	3,2
  5789  07EA  2FEC               	goto	u213_21
  5790  07EB  2FED               	goto	u213_20
  5791  07EC                     u213_21:
  5792  07EC  2FF1               	goto	i1l2338
  5793  07ED                     u213_20:
  5794  07ED                     i1l2336:
  5795                           
  5796                           ;CurrentSensor.c: 99:             transToOverCurrentFault();
  5797  07ED  318C  2402  3187   	fcall	_transToOverCurrentFault
  5798                           
  5799                           ;CurrentSensor.c: 100:         }
  5800  07F0  2FFD               	goto	i1l541
  5801  07F1                     i1l2338:
  5802                           
  5803                           ;CurrentSensor.c: 102:             currentTripReset();
  5804  07F1  318C  2414  3187   	fcall	i1_currentTripReset
  5805  07F4  2FFD               	goto	i1l541
  5806  07F5                     i1l2340:
  5807                           
  5808                           ;CurrentSensor.c: 106:         if(currentTripCount > 0){
  5809  07F5  0020               	movlb	0	; select bank0
  5810  07F6  0869               	movf	_currentTripCount,w
  5811  07F7  1903               	btfsc	3,2
  5812  07F8  2FFA               	goto	u214_21
  5813  07F9  2FFB               	goto	u214_20
  5814  07FA                     u214_21:
  5815  07FA  2FFD               	goto	i1l541
  5816  07FB                     u214_20:
  5817  07FB                     i1l2342:
  5818                           
  5819                           ;CurrentSensor.c: 107:             currentTripCount--;
  5820  07FB  3001               	movlw	1
  5821  07FC  02E9               	subwf	_currentTripCount,f
  5822  07FD                     i1l541:
  5823  07FD  0008               	return
  5824  07FE                     __end_of_currentTripMonitor:
  5825                           
  5826                           	psect	text25
  5827  0C14                     __ptext25:	
  5828 ;; *************** function i1_currentTripReset *****************
  5829 ;; Defined at:
  5830 ;;		line 71 in file "CurrentSensor.c"
  5831 ;; Parameters:    Size  Location     Type
  5832 ;;		None
  5833 ;; Auto vars:     Size  Location     Type
  5834 ;;		None
  5835 ;; Return value:  Size  Location     Type
  5836 ;;                  1    wreg      void 
  5837 ;; Registers used:
  5838 ;;		wreg, status,2, status,0, pclath, cstack
  5839 ;; Tracked objects:
  5840 ;;		On entry : 0/0
  5841 ;;		On exit  : 0/0
  5842 ;;		Unchanged: 0/0
  5843 ;; Data sizes:     COMMON   BANK0   BANK1   BANK2   BANK3   BANK4
  5844 ;;      Params:         0       0       0       0       0       0
  5845 ;;      Locals:         0       0       0       0       0       0
  5846 ;;      Temps:          0       0       0       0       0       0
  5847 ;;      Totals:         0       0       0       0       0       0
  5848 ;;Total ram usage:        0 bytes
  5849 ;; Hardware stack levels used: 1
  5850 ;; Hardware stack levels required when called: 1
  5851 ;; This function calls:
  5852 ;;		i1_writeGPIO
  5853 ;; This function is called by:
  5854 ;;		_currentTripMonitor
  5855 ;; This function uses a non-reentrant model
  5856 ;;
  5857                           
  5858  0C14                     i1_currentTripReset:	
  5859                           ;psect for function i1_currentTripReset
  5860                           
  5861  0C14                     i1l2328:	
  5862                           ;incstack = 0
  5863                           ; Regs used in i1_currentTripReset: [wreg+status,2+status,0+pclath+cstack]
  5864                           
  5865                           
  5866                           ;CurrentSensor.c: 72:     writeGPIO(pinRB3, 0);
  5867  0C14  01F0               	clrf	i1writeGPIO@writeValue
  5868  0C15  300B               	movlw	11
  5869  0C16  3186  26C5  318C   	fcall	i1_writeGPIO
  5870  0C19                     i1l2330:
  5871                           
  5872                           ;CurrentSensor.c: 73:      _delay((unsigned long)((20)*(freq32M/4000000.0)));
  5873                           ;CurrentSensor.c: 74:     writeGPIO(pinRB3, 1);
  5874  0C19  01F0               	clrf	i1writeGPIO@writeValue
  5875  0C1A  0AF0               	incf	i1writeGPIO@writeValue,f
  5876  0C1B  300B               	movlw	11
  5877  0C1C  3186  26C5  318C   	fcall	i1_writeGPIO
  5878  0C1F                     i1l530:
  5879  0C1F  0008               	return
  5880  0C20                     __end_ofi1_currentTripReset:
  5881                           
  5882                           	psect	text26
  5883  06C5                     __ptext26:	
  5884 ;; *************** function i1_writeGPIO *****************
  5885 ;; Defined at:
  5886 ;;		line 52 in file "GPIO.c"
  5887 ;; Parameters:    Size  Location     Type
  5888 ;;  gpioNumber      1    wreg     const enum E2798
  5889 ;;  writeValue      1    0[COMMON] unsigned char 
  5890 ;; Auto vars:     Size  Location     Type
  5891 ;;  gpioNumber      1    4[COMMON] const enum E2798
  5892 ;;  portNumber      1    5[COMMON] unsigned char 
  5893 ;;  portType        1    3[COMMON] unsigned char 
  5894 ;; Return value:  Size  Location     Type
  5895 ;;                  1    wreg      void 
  5896 ;; Registers used:
  5897 ;;		wreg, status,2, status,0
  5898 ;; Tracked objects:
  5899 ;;		On entry : 0/0
  5900 ;;		On exit  : 0/0
  5901 ;;		Unchanged: 0/0
  5902 ;; Data sizes:     COMMON   BANK0   BANK1   BANK2   BANK3   BANK4
  5903 ;;      Params:         1       0       0       0       0       0
  5904 ;;      Locals:         3       0       0       0       0       0
  5905 ;;      Temps:          2       0       0       0       0       0
  5906 ;;      Totals:         6       0       0       0       0       0
  5907 ;;Total ram usage:        6 bytes
  5908 ;; Hardware stack levels used: 1
  5909 ;; This function calls:
  5910 ;;		Nothing
  5911 ;; This function is called by:
  5912 ;;		_Tick490Hz
  5913 ;;		i1_currentTripReset
  5914 ;; This function uses a non-reentrant model
  5915 ;;
  5916                           
  5917  06C5                     i1_writeGPIO:	
  5918                           ;psect for function i1_writeGPIO
  5919                           
  5920                           
  5921                           ;incstack = 0
  5922                           ; Regs used in i1_writeGPIO: [wreg+status,2+status,0]
  5923                           ;i1writeGPIO@gpioNumber stored from wreg
  5924  06C5  00F4               	movwf	i1writeGPIO@gpioNumber
  5925  06C6                     i1l2068:
  5926                           
  5927                           ;GPIO.c: 54:     uint8_t portType = 0;
  5928  06C6  01F3               	clrf	i1writeGPIO@portType
  5929  06C7                     i1l2070:
  5930                           
  5931                           ;GPIO.c: 55:     if(gpioNumber > 7){
  5932  06C7  3008               	movlw	8
  5933  06C8  0274               	subwf	i1writeGPIO@gpioNumber,w
  5934  06C9  1C03               	skipc
  5935  06CA  2ECC               	goto	u147_21
  5936  06CB  2ECD               	goto	u147_20
  5937  06CC                     u147_21:
  5938  06CC  2ED5               	goto	i1l2076
  5939  06CD                     u147_20:
  5940  06CD                     i1l2072:
  5941                           
  5942                           ;GPIO.c: 56:         portNumber = gpioNumber - 8;
  5943  06CD  0874               	movf	i1writeGPIO@gpioNumber,w
  5944  06CE  3EF8               	addlw	248
  5945  06CF  00F1               	movwf	??i1_writeGPIO
  5946  06D0  0871               	movf	??i1_writeGPIO,w
  5947  06D1  00F5               	movwf	i1writeGPIO@portNumber
  5948  06D2                     i1l2074:
  5949                           
  5950                           ;GPIO.c: 57:         portType = 1;
  5951  06D2  01F3               	clrf	i1writeGPIO@portType
  5952  06D3  0AF3               	incf	i1writeGPIO@portType,f
  5953                           
  5954                           ;GPIO.c: 58:     }
  5955  06D4  2EDA               	goto	i1l2080
  5956  06D5                     i1l2076:
  5957                           
  5958                           ;GPIO.c: 60:         portNumber = gpioNumber;
  5959  06D5  0874               	movf	i1writeGPIO@gpioNumber,w
  5960  06D6  00F1               	movwf	??i1_writeGPIO
  5961  06D7  0871               	movf	??i1_writeGPIO,w
  5962  06D8  00F5               	movwf	i1writeGPIO@portNumber
  5963  06D9                     i1l2078:
  5964                           
  5965                           ;GPIO.c: 61:         portType = 0;
  5966  06D9  01F3               	clrf	i1writeGPIO@portType
  5967  06DA                     i1l2080:
  5968                           
  5969                           ;GPIO.c: 64:     if(portType == 0){
  5970  06DA  0873               	movf	i1writeGPIO@portType,w
  5971  06DB  1D03               	btfss	3,2
  5972  06DC  2EDE               	goto	u148_21
  5973  06DD  2EDF               	goto	u148_20
  5974  06DE                     u148_21:
  5975  06DE  2EFF               	goto	i1l2088
  5976  06DF                     u148_20:
  5977  06DF                     i1l2082:
  5978                           
  5979                           ;GPIO.c: 65:         if(writeValue) LATA |= (1 << (uint8_t)portNumber);
  5980  06DF  0870               	movf	i1writeGPIO@writeValue,w
  5981  06E0  1903               	btfsc	3,2
  5982  06E1  2EE3               	goto	u149_21
  5983  06E2  2EE4               	goto	u149_20
  5984  06E3                     u149_21:
  5985  06E3  2EF1               	goto	i1l2086
  5986  06E4                     u149_20:
  5987  06E4                     i1l2084:
  5988  06E4  3001               	movlw	1
  5989  06E5  00F1               	movwf	??i1_writeGPIO
  5990  06E6  0A75               	incf	i1writeGPIO@portNumber,w
  5991  06E7  2EE9               	goto	u150_24
  5992  06E8                     u150_25:
  5993  06E8  35F1               	lslf	??i1_writeGPIO,f
  5994  06E9                     u150_24:
  5995  06E9  0B89               	decfsz	9,f
  5996  06EA  2EE8               	goto	u150_25
  5997  06EB  0871               	movf	??i1_writeGPIO,w
  5998  06EC  00F2               	movwf	??i1_writeGPIO+1
  5999  06ED  0872               	movf	??i1_writeGPIO+1,w
  6000  06EE  0022               	movlb	2	; select bank2
  6001  06EF  048C               	iorwf	12,f	;volatile
  6002  06F0  2F23               	goto	i1l318
  6003  06F1                     i1l2086:
  6004  06F1  3001               	movlw	1
  6005  06F2  00F1               	movwf	??i1_writeGPIO
  6006  06F3  0A75               	incf	i1writeGPIO@portNumber,w
  6007  06F4  2EF6               	goto	u151_24
  6008  06F5                     u151_25:
  6009  06F5  35F1               	lslf	??i1_writeGPIO,f
  6010  06F6                     u151_24:
  6011  06F6  0B89               	decfsz	9,f
  6012  06F7  2EF5               	goto	u151_25
  6013  06F8  0871               	movf	??i1_writeGPIO,w
  6014  06F9  3AFF               	xorlw	255
  6015  06FA  00F2               	movwf	??i1_writeGPIO+1
  6016  06FB  0872               	movf	??i1_writeGPIO+1,w
  6017  06FC  0022               	movlb	2	; select bank2
  6018  06FD  058C               	andwf	12,f	;volatile
  6019  06FE  2F23               	goto	i1l318
  6020  06FF                     i1l2088:
  6021  06FF  0373               	decf	i1writeGPIO@portType,w
  6022  0700  1D03               	btfss	3,2
  6023  0701  2F03               	goto	u152_21
  6024  0702  2F04               	goto	u152_20
  6025  0703                     u152_21:
  6026  0703  2F23               	goto	i1l318
  6027  0704                     u152_20:
  6028  0704                     i1l2090:
  6029                           
  6030                           ;GPIO.c: 69:         if(writeValue) LATB |= (1 << (uint8_t)portNumber);
  6031  0704  0870               	movf	i1writeGPIO@writeValue,w
  6032  0705  1903               	btfsc	3,2
  6033  0706  2F08               	goto	u153_21
  6034  0707  2F09               	goto	u153_20
  6035  0708                     u153_21:
  6036  0708  2F16               	goto	i1l2094
  6037  0709                     u153_20:
  6038  0709                     i1l2092:
  6039  0709  3001               	movlw	1
  6040  070A  00F1               	movwf	??i1_writeGPIO
  6041  070B  0A75               	incf	i1writeGPIO@portNumber,w
  6042  070C  2F0E               	goto	u154_24
  6043  070D                     u154_25:
  6044  070D  35F1               	lslf	??i1_writeGPIO,f
  6045  070E                     u154_24:
  6046  070E  0B89               	decfsz	9,f
  6047  070F  2F0D               	goto	u154_25
  6048  0710  0871               	movf	??i1_writeGPIO,w
  6049  0711  00F2               	movwf	??i1_writeGPIO+1
  6050  0712  0872               	movf	??i1_writeGPIO+1,w
  6051  0713  0022               	movlb	2	; select bank2
  6052  0714  048D               	iorwf	13,f	;volatile
  6053  0715  2F23               	goto	i1l318
  6054  0716                     i1l2094:
  6055  0716  3001               	movlw	1
  6056  0717  00F1               	movwf	??i1_writeGPIO
  6057  0718  0A75               	incf	i1writeGPIO@portNumber,w
  6058  0719  2F1B               	goto	u155_24
  6059  071A                     u155_25:
  6060  071A  35F1               	lslf	??i1_writeGPIO,f
  6061  071B                     u155_24:
  6062  071B  0B89               	decfsz	9,f
  6063  071C  2F1A               	goto	u155_25
  6064  071D  0871               	movf	??i1_writeGPIO,w
  6065  071E  3AFF               	xorlw	255
  6066  071F  00F2               	movwf	??i1_writeGPIO+1
  6067  0720  0872               	movf	??i1_writeGPIO+1,w
  6068  0721  0022               	movlb	2	; select bank2
  6069  0722  058D               	andwf	13,f	;volatile
  6070  0723                     i1l318:
  6071  0723  0008               	return
  6072  0724                     __end_ofi1_writeGPIO:
  6073                           
  6074                           	psect	text27
  6075  0C02                     __ptext27:	
  6076 ;; *************** function _transToOverCurrentFault *****************
  6077 ;; Defined at:
  6078 ;;		line 45 in file "StateMachine.c"
  6079 ;; Parameters:    Size  Location     Type
  6080 ;;		None
  6081 ;; Auto vars:     Size  Location     Type
  6082 ;;		None
  6083 ;; Return value:  Size  Location     Type
  6084 ;;                  1    wreg      void 
  6085 ;; Registers used:
  6086 ;;		wreg, status,2
  6087 ;; Tracked objects:
  6088 ;;		On entry : 0/0
  6089 ;;		On exit  : 0/0
  6090 ;;		Unchanged: 0/0
  6091 ;; Data sizes:     COMMON   BANK0   BANK1   BANK2   BANK3   BANK4
  6092 ;;      Params:         0       0       0       0       0       0
  6093 ;;      Locals:         0       0       0       0       0       0
  6094 ;;      Temps:          1       0       0       0       0       0
  6095 ;;      Totals:         1       0       0       0       0       0
  6096 ;;Total ram usage:        1 bytes
  6097 ;; Hardware stack levels used: 1
  6098 ;; This function calls:
  6099 ;;		Nothing
  6100 ;; This function is called by:
  6101 ;;		_currentTripMonitor
  6102 ;; This function uses a non-reentrant model
  6103 ;;
  6104                           
  6105  0C02                     _transToOverCurrentFault:	
  6106                           ;psect for function _transToOverCurrentFault
  6107                           
  6108  0C02                     i1l2286:	
  6109                           ;incstack = 0
  6110                           ; Regs used in _transToOverCurrentFault: [wreg+status,2]
  6111                           
  6112                           
  6113                           ;StateMachine.c: 46:     setDuty = 0;
  6114  0C02  0020               	movlb	0	; select bank0
  6115  0C03  01E3               	clrf	_setDuty
  6116  0C04  01E4               	clrf	_setDuty+1
  6117                           
  6118                           ;StateMachine.c: 47:     setPeriod = 0;
  6119  0C05  01EE               	clrf	_setPeriod
  6120  0C06                     i1l2288:
  6121                           
  6122                           ;StateMachine.c: 48:     currentState = overCurrentFault;
  6123  0C06  3004               	movlw	4
  6124  0C07  00F0               	movwf	??_transToOverCurrentFault
  6125  0C08  0870               	movf	??_transToOverCurrentFault,w
  6126  0C09  00EC               	movwf	_currentState
  6127  0C0A                     i1l565:
  6128  0C0A  0008               	return
  6129  0C0B                     __end_of_transToOverCurrentFault:
  6130                           
  6131                           	psect	text28
  6132  0CEB                     __ptext28:	
  6133 ;; *************** function _currentTripRead *****************
  6134 ;; Defined at:
  6135 ;;		line 31 in file "CurrentSensor.c"
  6136 ;; Parameters:    Size  Location     Type
  6137 ;;		None
  6138 ;; Auto vars:     Size  Location     Type
  6139 ;;		None
  6140 ;; Return value:  Size  Location     Type
  6141 ;;                  1    wreg      _Bool 
  6142 ;; Registers used:
  6143 ;;		wreg, status,2, status,0, pclath, cstack
  6144 ;; Tracked objects:
  6145 ;;		On entry : 0/0
  6146 ;;		On exit  : 0/0
  6147 ;;		Unchanged: 0/0
  6148 ;; Data sizes:     COMMON   BANK0   BANK1   BANK2   BANK3   BANK4
  6149 ;;      Params:         0       0       0       0       0       0
  6150 ;;      Locals:         1       0       0       0       0       0
  6151 ;;      Temps:          1       0       0       0       0       0
  6152 ;;      Totals:         2       0       0       0       0       0
  6153 ;;Total ram usage:        2 bytes
  6154 ;; Hardware stack levels used: 1
  6155 ;; Hardware stack levels required when called: 1
  6156 ;; This function calls:
  6157 ;;		i1_readGPIO
  6158 ;; This function is called by:
  6159 ;;		_currentTripMonitor
  6160 ;; This function uses a non-reentrant model
  6161 ;;
  6162                           
  6163  0CEB                     _currentTripRead:	
  6164                           ;psect for function _currentTripRead
  6165                           
  6166  0CEB                     i1l2272:	
  6167                           ;incstack = 0
  6168                           ; Regs used in _currentTripRead: [wreg+status,2+status,0+pclath+cstack]
  6169                           
  6170                           
  6171                           ;CurrentSensor.c: 32:     tripIDS = ~readGPIO(pinRA1);
  6172  0CEB  3001               	movlw	1
  6173  0CEC  318D  25BB  318C   	fcall	i1_readGPIO
  6174  0CEF  3A01               	xorlw	1
  6175  0CF0  1D03               	skipz
  6176  0CF1  2CF3               	goto	u195_21
  6177  0CF2  2CF5               	goto	u195_20
  6178  0CF3                     u195_21:
  6179  0CF3  3001               	movlw	1
  6180  0CF4  2CF6               	goto	u196_20
  6181  0CF5                     u195_20:
  6182  0CF5  3000               	movlw	0
  6183  0CF6                     u196_20:
  6184  0CF6  00F9               	movwf	??_currentTripRead
  6185  0CF7  0879               	movf	??_currentTripRead,w
  6186  0CF8  0020               	movlb	0	; select bank0
  6187  0CF9  00EB               	movwf	_tripIDS
  6188                           
  6189                           ;CurrentSensor.c: 33:     tripIL = ~readGPIO(pinRA3);
  6190  0CFA  3003               	movlw	3
  6191  0CFB  318D  25BB  318C   	fcall	i1_readGPIO
  6192  0CFE  3A01               	xorlw	1
  6193  0CFF  1D03               	skipz
  6194  0D00  2D02               	goto	u197_21
  6195  0D01  2D04               	goto	u197_20
  6196  0D02                     u197_21:
  6197  0D02  3001               	movlw	1
  6198  0D03  2D05               	goto	u198_20
  6199  0D04                     u197_20:
  6200  0D04  3000               	movlw	0
  6201  0D05                     u198_20:
  6202  0D05  00F9               	movwf	??_currentTripRead
  6203  0D06  0879               	movf	??_currentTripRead,w
  6204  0D07  0020               	movlb	0	; select bank0
  6205  0D08  00EA               	movwf	_tripIL
  6206  0D09                     i1l2274:
  6207                           
  6208                           ;CurrentSensor.c: 34:     return (tripIL || tripIDS);
  6209  0D09  01FA               	clrf	_currentTripRead$913
  6210  0D0A  0AFA               	incf	_currentTripRead$913,f
  6211  0D0B                     i1l2276:
  6212  0D0B  086A               	movf	_tripIL,w
  6213  0D0C  1D03               	btfss	3,2
  6214  0D0D  2D0F               	goto	u199_21
  6215  0D0E  2D10               	goto	u199_20
  6216  0D0F                     u199_21:
  6217  0D0F  2D16               	goto	i1l2282
  6218  0D10                     u199_20:
  6219  0D10                     i1l2278:
  6220  0D10  086B               	movf	_tripIDS,w
  6221  0D11  1D03               	btfss	3,2
  6222  0D12  2D14               	goto	u200_21
  6223  0D13  2D15               	goto	u200_20
  6224  0D14                     u200_21:
  6225  0D14  2D16               	goto	i1l2282
  6226  0D15                     u200_20:
  6227  0D15                     i1l2280:
  6228  0D15  01FA               	clrf	_currentTripRead$913
  6229  0D16                     i1l2282:
  6230  0D16  087A               	movf	_currentTripRead$913,w
  6231  0D17                     i1l513:
  6232  0D17  0008               	return
  6233  0D18                     __end_of_currentTripRead:
  6234                           
  6235                           	psect	text29
  6236  03F9                     __ptext29:	
  6237 ;; *************** function _controlRoutine *****************
  6238 ;; Defined at:
  6239 ;;		line 65 in file "Controller.c"
  6240 ;; Parameters:    Size  Location     Type
  6241 ;;		None
  6242 ;; Auto vars:     Size  Location     Type
  6243 ;;  setDuty_unre    2   60[BANK0 ] short 
  6244 ;;  minDuty         2   58[BANK0 ] unsigned short 
  6245 ;;  maxDuty         2   56[BANK0 ] unsigned short 
  6246 ;; Return value:  Size  Location     Type
  6247 ;;                  1    wreg      void 
  6248 ;; Registers used:
  6249 ;;		wreg, fsr1l, fsr1h, status,2, status,0, pclath, cstack
  6250 ;; Tracked objects:
  6251 ;;		On entry : 0/0
  6252 ;;		On exit  : 0/0
  6253 ;;		Unchanged: 0/0
  6254 ;; Data sizes:     COMMON   BANK0   BANK1   BANK2   BANK3   BANK4
  6255 ;;      Params:         0       0       0       0       0       0
  6256 ;;      Locals:         0       6       0       0       0       0
  6257 ;;      Temps:          0       6       0       0       0       0
  6258 ;;      Totals:         0      12       0       0       0       0
  6259 ;;Total ram usage:       12 bytes
  6260 ;; Hardware stack levels used: 1
  6261 ;; Hardware stack levels required when called: 3
  6262 ;; This function calls:
  6263 ;;		___lldiv
  6264 ;;		___wmul
  6265 ;;		_runVoltageModeControl
  6266 ;; This function is called by:
  6267 ;;		_Tick490Hz
  6268 ;; This function uses a non-reentrant model
  6269 ;;
  6270                           
  6271  03F9                     _controlRoutine:	
  6272                           ;psect for function _controlRoutine
  6273                           
  6274  03F9                     i1l2350:	
  6275                           ;incstack = 0
  6276                           ; Regs used in _controlRoutine: [wreg+fsr1l+fsr1h+status,2+status,0+pclath+cstack]
  6277                           
  6278                           
  6279                           ;Controller.c: 67:     int16_t setDuty_unreg = 0;
  6280  03F9  0020               	movlb	0	; select bank0
  6281  03FA  01DC               	clrf	controlRoutine@setDuty_unreg
  6282  03FB  01DD               	clrf	controlRoutine@setDuty_unreg+1
  6283  03FC                     i1l2352:
  6284                           
  6285                           ;Controller.c: 70:     if(currentState == voltageModeControl){
  6286  03FC  3002               	movlw	2
  6287  03FD  066C               	xorwf	_currentState,w
  6288  03FE  1D03               	btfss	3,2
  6289  03FF  2C01               	goto	u217_21
  6290  0400  2C02               	goto	u217_20
  6291  0401                     u217_21:
  6292  0401  2C3D               	goto	i1l2362
  6293  0402                     u217_20:
  6294  0402                     i1l2354:
  6295                           
  6296                           ;Controller.c: 72:         runVoltageModeControl();
  6297  0402  3180  20B4  3183   	fcall	_runVoltageModeControl
  6298  0405                     i1l2356:
  6299                           
  6300                           ;Controller.c: 73:         setPeriod = 79u;
  6301  0405  304F               	movlw	79
  6302  0406  0020               	movlb	0	; select bank0
  6303  0407  00D2               	movwf	??_controlRoutine
  6304  0408  0852               	movf	??_controlRoutine,w
  6305  0409  00EE               	movwf	_setPeriod
  6306  040A                     i1l2358:
  6307                           
  6308                           ;Controller.c: 75:         setDuty_unreg = (int16_t) (((uint32_t)(((uint16_t) 50u) * set
      +                          Period)) / 25) + voltageModeVariables.sumOutput;
  6309  040A  3016               	movlw	22
  6310  040B  3EB6               	addlw	(low (_voltageModeVariables| 0))& (0+255)
  6311  040C  0086               	movwf	6
  6312  040D  0187               	clrf	7
  6313  040E  3000               	movlw	0
  6314  040F  00F9               	movwf	___lldiv@divisor+3
  6315  0410  3000               	movlw	0
  6316  0411  00F8               	movwf	___lldiv@divisor+2
  6317  0412  3000               	movlw	0
  6318  0413  00F7               	movwf	___lldiv@divisor+1
  6319  0414  3019               	movlw	25
  6320  0415  00F6               	movwf	___lldiv@divisor
  6321  0416  3032               	movlw	50
  6322  0417  00F2               	movwf	___wmul@multiplicand
  6323  0418  3000               	movlw	0
  6324  0419  00F3               	movwf	___wmul@multiplicand+1
  6325  041A  086E               	movf	_setPeriod,w
  6326  041B  00D2               	movwf	??_controlRoutine
  6327  041C  01D3               	clrf	??_controlRoutine+1
  6328  041D  0852               	movf	??_controlRoutine,w
  6329  041E  00F0               	movwf	___wmul@multiplier
  6330  041F  0853               	movf	??_controlRoutine+1,w
  6331  0420  00F1               	movwf	___wmul@multiplier+1
  6332  0421  318C  2481  3183   	fcall	___wmul
  6333  0424  0870               	movf	?___wmul,w
  6334  0425  0020               	movlb	0	; select bank0
  6335  0426  00D4               	movwf	??_controlRoutine+2
  6336  0427  0871               	movf	?___wmul+1,w
  6337  0428  00D5               	movwf	??_controlRoutine+3
  6338  0429  01D6               	clrf	??_controlRoutine+4
  6339  042A  01D7               	clrf	??_controlRoutine+5
  6340  042B  0857               	movf	??_controlRoutine+5,w
  6341  042C  00FD               	movwf	___lldiv@dividend+3
  6342  042D  0856               	movf	??_controlRoutine+4,w
  6343  042E  00FC               	movwf	___lldiv@dividend+2
  6344  042F  0855               	movf	??_controlRoutine+3,w
  6345  0430  00FB               	movwf	___lldiv@dividend+1
  6346  0431  0854               	movf	??_controlRoutine+2,w
  6347  0432  00FA               	movwf	___lldiv@dividend
  6348  0433  318F  274A  3183   	fcall	___lldiv
  6349  0436  3F40               	moviw [0]fsr1
  6350  0437  0776               	addwf	?___lldiv,w
  6351  0438  0020               	movlb	0	; select bank0
  6352  0439  00DC               	movwf	controlRoutine@setDuty_unreg
  6353  043A  3F41               	moviw [1]fsr1
  6354  043B  3D77               	addwfc	?___lldiv+1,w
  6355  043C  00DD               	movwf	controlRoutine@setDuty_unreg+1
  6356  043D                     i1l2362:
  6357                           
  6358                           ;Controller.c: 87:     uint16_t maxDuty = (uint16_t) (((uint32_t)(((uint16_t) 90) * setP
      +                          eriod)) / 25);
  6359  043D  3000               	movlw	0
  6360  043E  00F9               	movwf	___lldiv@divisor+3
  6361  043F  3000               	movlw	0
  6362  0440  00F8               	movwf	___lldiv@divisor+2
  6363  0441  3000               	movlw	0
  6364  0442  00F7               	movwf	___lldiv@divisor+1
  6365  0443  3019               	movlw	25
  6366  0444  00F6               	movwf	___lldiv@divisor
  6367  0445  305A               	movlw	90
  6368  0446  00F2               	movwf	___wmul@multiplicand
  6369  0447  3000               	movlw	0
  6370  0448  00F3               	movwf	___wmul@multiplicand+1
  6371  0449  086E               	movf	_setPeriod,w
  6372  044A  00D2               	movwf	??_controlRoutine
  6373  044B  01D3               	clrf	??_controlRoutine+1
  6374  044C  0852               	movf	??_controlRoutine,w
  6375  044D  00F0               	movwf	___wmul@multiplier
  6376  044E  0853               	movf	??_controlRoutine+1,w
  6377  044F  00F1               	movwf	___wmul@multiplier+1
  6378  0450  318C  2481  3183   	fcall	___wmul
  6379  0453  0870               	movf	?___wmul,w
  6380  0454  0020               	movlb	0	; select bank0
  6381  0455  00D4               	movwf	??_controlRoutine+2
  6382  0456  0871               	movf	?___wmul+1,w
  6383  0457  00D5               	movwf	??_controlRoutine+3
  6384  0458  01D6               	clrf	??_controlRoutine+4
  6385  0459  01D7               	clrf	??_controlRoutine+5
  6386  045A  0857               	movf	??_controlRoutine+5,w
  6387  045B  00FD               	movwf	___lldiv@dividend+3
  6388  045C  0856               	movf	??_controlRoutine+4,w
  6389  045D  00FC               	movwf	___lldiv@dividend+2
  6390  045E  0855               	movf	??_controlRoutine+3,w
  6391  045F  00FB               	movwf	___lldiv@dividend+1
  6392  0460  0854               	movf	??_controlRoutine+2,w
  6393  0461  00FA               	movwf	___lldiv@dividend
  6394  0462  318F  274A  3183   	fcall	___lldiv
  6395  0465  0877               	movf	?___lldiv+1,w
  6396  0466  0020               	movlb	0	; select bank0
  6397  0467  00D9               	movwf	controlRoutine@maxDuty+1
  6398  0468  0876               	movf	?___lldiv,w
  6399  0469  00D8               	movwf	controlRoutine@maxDuty
  6400                           
  6401                           ;Controller.c: 88:     uint16_t minDuty = (uint16_t) (((uint32_t)(((uint16_t) 10) * setP
      +                          eriod)) / 25);
  6402  046A  3000               	movlw	0
  6403  046B  00F9               	movwf	___lldiv@divisor+3
  6404  046C  3000               	movlw	0
  6405  046D  00F8               	movwf	___lldiv@divisor+2
  6406  046E  3000               	movlw	0
  6407  046F  00F7               	movwf	___lldiv@divisor+1
  6408  0470  3019               	movlw	25
  6409  0471  00F6               	movwf	___lldiv@divisor
  6410  0472  300A               	movlw	10
  6411  0473  00F2               	movwf	___wmul@multiplicand
  6412  0474  3000               	movlw	0
  6413  0475  00F3               	movwf	___wmul@multiplicand+1
  6414  0476  086E               	movf	_setPeriod,w
  6415  0477  00D2               	movwf	??_controlRoutine
  6416  0478  01D3               	clrf	??_controlRoutine+1
  6417  0479  0852               	movf	??_controlRoutine,w
  6418  047A  00F0               	movwf	___wmul@multiplier
  6419  047B  0853               	movf	??_controlRoutine+1,w
  6420  047C  00F1               	movwf	___wmul@multiplier+1
  6421  047D  318C  2481  3183   	fcall	___wmul
  6422  0480  0870               	movf	?___wmul,w
  6423  0481  0020               	movlb	0	; select bank0
  6424  0482  00D4               	movwf	??_controlRoutine+2
  6425  0483  0871               	movf	?___wmul+1,w
  6426  0484  00D5               	movwf	??_controlRoutine+3
  6427  0485  01D6               	clrf	??_controlRoutine+4
  6428  0486  01D7               	clrf	??_controlRoutine+5
  6429  0487  0857               	movf	??_controlRoutine+5,w
  6430  0488  00FD               	movwf	___lldiv@dividend+3
  6431  0489  0856               	movf	??_controlRoutine+4,w
  6432  048A  00FC               	movwf	___lldiv@dividend+2
  6433  048B  0855               	movf	??_controlRoutine+3,w
  6434  048C  00FB               	movwf	___lldiv@dividend+1
  6435  048D  0854               	movf	??_controlRoutine+2,w
  6436  048E  00FA               	movwf	___lldiv@dividend
  6437  048F  318F  274A  3183   	fcall	___lldiv
  6438  0492  0877               	movf	?___lldiv+1,w
  6439  0493  0020               	movlb	0	; select bank0
  6440  0494  00DB               	movwf	controlRoutine@minDuty+1
  6441  0495  0876               	movf	?___lldiv,w
  6442  0496  00DA               	movwf	controlRoutine@minDuty
  6443  0497                     i1l2364:
  6444                           
  6445                           ;Controller.c: 89:     if(setDuty_unreg < 0) setDuty = minDuty;
  6446  0497  1FDD               	btfss	controlRoutine@setDuty_unreg+1,7
  6447  0498  2C9A               	goto	u218_21
  6448  0499  2C9B               	goto	u218_20
  6449  049A                     u218_21:
  6450  049A  2CA0               	goto	i1l443
  6451  049B                     u218_20:
  6452  049B                     i1l2366:
  6453  049B  085B               	movf	controlRoutine@minDuty+1,w
  6454  049C  00E4               	movwf	_setDuty+1
  6455  049D  085A               	movf	controlRoutine@minDuty,w
  6456  049E  00E3               	movwf	_setDuty
  6457  049F  2CC3               	goto	i1l450
  6458  04A0                     i1l443:	
  6459                           ;Controller.c: 90:     else if(setDuty_unreg >= 0){
  6460                           
  6461  04A0  1BDD               	btfsc	controlRoutine@setDuty_unreg+1,7
  6462  04A1  2CA3               	goto	u219_21
  6463  04A2  2CA4               	goto	u219_20
  6464  04A3                     u219_21:
  6465  04A3  2CBE               	goto	i1l2376
  6466  04A4                     u219_20:
  6467  04A4                     i1l2368:
  6468                           
  6469                           ;Controller.c: 91:         if(setDuty_unreg < minDuty) setDuty = minDuty;
  6470  04A4  085B               	movf	controlRoutine@minDuty+1,w
  6471  04A5  025D               	subwf	controlRoutine@setDuty_unreg+1,w
  6472  04A6  1D03               	skipz
  6473  04A7  2CAA               	goto	u220_25
  6474  04A8  085A               	movf	controlRoutine@minDuty,w
  6475  04A9  025C               	subwf	controlRoutine@setDuty_unreg,w
  6476  04AA                     u220_25:
  6477  04AA  1803               	skipnc
  6478  04AB  2CAD               	goto	u220_21
  6479  04AC  2CAE               	goto	u220_20
  6480  04AD                     u220_21:
  6481  04AD  2CAF               	goto	i1l2372
  6482  04AE                     u220_20:
  6483  04AE  2C9B               	goto	i1l2366
  6484  04AF                     i1l2372:
  6485  04AF  085D               	movf	controlRoutine@setDuty_unreg+1,w
  6486  04B0  0259               	subwf	controlRoutine@maxDuty+1,w
  6487  04B1  1D03               	skipz
  6488  04B2  2CB5               	goto	u221_25
  6489  04B3  085C               	movf	controlRoutine@setDuty_unreg,w
  6490  04B4  0258               	subwf	controlRoutine@maxDuty,w
  6491  04B5                     u221_25:
  6492  04B5  1803               	skipnc
  6493  04B6  2CB8               	goto	u221_21
  6494  04B7  2CB9               	goto	u221_20
  6495  04B8                     u221_21:
  6496  04B8  2CC3               	goto	i1l449
  6497  04B9                     u221_20:
  6498  04B9                     i1l2374:
  6499  04B9  0859               	movf	controlRoutine@maxDuty+1,w
  6500  04BA  00E4               	movwf	_setDuty+1
  6501  04BB  0858               	movf	controlRoutine@maxDuty,w
  6502  04BC  00E3               	movwf	_setDuty
  6503  04BD  2CC3               	goto	i1l450
  6504  04BE                     i1l2376:
  6505  04BE  085D               	movf	controlRoutine@setDuty_unreg+1,w
  6506  04BF  00E4               	movwf	_setDuty+1
  6507  04C0  085C               	movf	controlRoutine@setDuty_unreg,w
  6508  04C1  00E3               	movwf	_setDuty
  6509  04C2  2CC3               	goto	i1l450
  6510  04C3                     i1l449:
  6511  04C3                     i1l450:
  6512  04C3  0008               	return
  6513  04C4                     __end_of_controlRoutine:
  6514                           
  6515                           	psect	text30
  6516  00B4                     __ptext30:	
  6517 ;; *************** function _runVoltageModeControl *****************
  6518 ;; Defined at:
  6519 ;;		line 103 in file "Controller.c"
  6520 ;; Parameters:    Size  Location     Type
  6521 ;;		None
  6522 ;; Auto vars:     Size  Location     Type
  6523 ;;  propMult        8   40[BANK0 ] long long 
  6524 ;;  integralMult    8   32[BANK0 ] long long 
  6525 ;;  newVoltage      2   48[BANK0 ] unsigned short 
  6526 ;; Return value:  Size  Location     Type
  6527 ;;                  1    wreg      void 
  6528 ;; Registers used:
  6529 ;;		wreg, fsr1l, fsr1h, status,2, status,0, pclath, cstack
  6530 ;; Tracked objects:
  6531 ;;		On entry : 0/0
  6532 ;;		On exit  : 0/0
  6533 ;;		Unchanged: 0/0
  6534 ;; Data sizes:     COMMON   BANK0   BANK1   BANK2   BANK3   BANK4
  6535 ;;      Params:         0       0       0       0       0       0
  6536 ;;      Locals:         0      18       0       0       0       0
  6537 ;;      Temps:          0      16       0       0       0       0
  6538 ;;      Totals:         0      34       0       0       0       0
  6539 ;;Total ram usage:       34 bytes
  6540 ;; Hardware stack levels used: 1
  6541 ;; Hardware stack levels required when called: 2
  6542 ;; This function calls:
  6543 ;;		___lmul
  6544 ;;		___omul
  6545 ;;		_abs
  6546 ;;		_convertRawToMilliVolts
  6547 ;;		i1_readGPIO
  6548 ;; This function is called by:
  6549 ;;		_controlRoutine
  6550 ;; This function uses a non-reentrant model
  6551 ;;
  6552                           
  6553  00B4                     _runVoltageModeControl:	
  6554                           ;psect for function _runVoltageModeControl
  6555                           
  6556  00B4                     i1l2236:	
  6557                           ;incstack = 0
  6558                           ; Regs used in _runVoltageModeControl: [wreg+fsr1l+fsr1h+status,2+status,0+pclath+cstack
      +                          ]
  6559                           
  6560                           
  6561                           ;Controller.c: 108:    uint16_t newVoltage = convertRawToMilliVolts(filteredVout);
  6562  00B4  0020               	movlb	0	; select bank0
  6563  00B5  0860               	movf	_filteredVout+1,w
  6564  00B6  00FD               	movwf	convertRawToMilliVolts@rawValue+1
  6565  00B7  085F               	movf	_filteredVout,w
  6566  00B8  00FC               	movwf	convertRawToMilliVolts@rawValue
  6567  00B9  318D  2580  3180   	fcall	_convertRawToMilliVolts
  6568  00BC  087D               	movf	?_convertRawToMilliVolts+1,w
  6569  00BD  0020               	movlb	0	; select bank0
  6570  00BE  00D1               	movwf	runVoltageModeControl@newVoltage+1
  6571  00BF  087C               	movf	?_convertRawToMilliVolts,w
  6572  00C0  00D0               	movwf	runVoltageModeControl@newVoltage
  6573                           
  6574                           ;Controller.c: 111:    if(readGPIO(pinRB0)) voltageModeVariables.error = 16000u - newVol
      +                          tage;
  6575  00C1  3008               	movlw	8
  6576  00C2  318D  25BB  3180   	fcall	i1_readGPIO
  6577  00C5  3A00               	xorlw	0
  6578  00C6  1903               	skipnz
  6579  00C7  28C9               	goto	u189_21
  6580  00C8  28CA               	goto	u189_20
  6581  00C9                     u189_21:
  6582  00C9  28D9               	goto	i1l2240
  6583  00CA                     u189_20:
  6584  00CA                     i1l2238:
  6585  00CA  3080               	movlw	128
  6586  00CB  0020               	movlb	0	; select bank0
  6587  00CC  00B0               	movwf	??_runVoltageModeControl
  6588  00CD  303E               	movlw	62
  6589  00CE  00B1               	movwf	??_runVoltageModeControl+1
  6590  00CF  0850               	movf	runVoltageModeControl@newVoltage,w
  6591  00D0  0230               	subwf	??_runVoltageModeControl,w
  6592  00D1  0021               	movlb	1	; select bank1
  6593  00D2  00B6               	movwf	_voltageModeVariables^(0+128)
  6594  00D3  0020               	movlb	0	; select bank0
  6595  00D4  0851               	movf	runVoltageModeControl@newVoltage+1,w
  6596  00D5  3B31               	subwfb	??_runVoltageModeControl+1,w
  6597  00D6  0021               	movlb	1	; select bank1
  6598  00D7  00B7               	movwf	(_voltageModeVariables+1)^(0+128)
  6599  00D8  28E7               	goto	i1l2242
  6600  00D9                     i1l2240:
  6601  00D9  30E0               	movlw	224
  6602  00DA  0020               	movlb	0	; select bank0
  6603  00DB  00B0               	movwf	??_runVoltageModeControl
  6604  00DC  302E               	movlw	46
  6605  00DD  00B1               	movwf	??_runVoltageModeControl+1
  6606  00DE  0850               	movf	runVoltageModeControl@newVoltage,w
  6607  00DF  0230               	subwf	??_runVoltageModeControl,w
  6608  00E0  0021               	movlb	1	; select bank1
  6609  00E1  00B6               	movwf	_voltageModeVariables^(0+128)
  6610  00E2  0020               	movlb	0	; select bank0
  6611  00E3  0851               	movf	runVoltageModeControl@newVoltage+1,w
  6612  00E4  3B31               	subwfb	??_runVoltageModeControl+1,w
  6613  00E5  0021               	movlb	1	; select bank1
  6614  00E6  00B7               	movwf	(_voltageModeVariables+1)^(0+128)
  6615  00E7                     i1l2242:
  6616                           
  6617                           ;Controller.c: 115:    int64_t integralMult = ((int64_t) (0u * ((int64_t) voltageModeVar
      +                          iables.error) )) * 267u;
  6618  00E7  0836               	movf	_voltageModeVariables^(0+128),w
  6619  00E8  0020               	movlb	0	; select bank0
  6620  00E9  00A0               	movwf	___omul@multiplier
  6621  00EA  0021               	movlb	1	; select bank1
  6622  00EB  0837               	movf	(_voltageModeVariables+1)^(0+128),w
  6623  00EC  0020               	movlb	0	; select bank0
  6624  00ED  00A1               	movwf	___omul@multiplier+1
  6625  00EE  0D89               	rlf	9,f
  6626  00EF  3B89               	subwfb	9,f
  6627  00F0  0989               	comf	9,f
  6628  00F1  00A2               	movwf	___omul@multiplier+2
  6629  00F2  00A3               	movwf	___omul@multiplier+3
  6630  00F3  00A4               	movwf	___omul@multiplier+4
  6631  00F4  00A5               	movwf	___omul@multiplier+5
  6632  00F5  00A6               	movwf	___omul@multiplier+6
  6633  00F6  00A7               	movwf	___omul@multiplier+7
  6634  00F7  01A8               	clrf	___omul@multiplicand
  6635  00F8  01A9               	clrf	___omul@multiplicand+1
  6636  00F9  01AA               	clrf	___omul@multiplicand+2
  6637  00FA  01AB               	clrf	___omul@multiplicand+3
  6638  00FB  01AC               	clrf	___omul@multiplicand+4
  6639  00FC  01AD               	clrf	___omul@multiplicand+5
  6640  00FD  01AE               	clrf	___omul@multiplicand+6
  6641  00FE  01AF               	clrf	___omul@multiplicand+7
  6642  00FF  318E  264C  3180   	fcall	___omul
  6643  0102  0020               	movlb	0	; select bank0
  6644  0103  0820               	movf	?___omul,w
  6645  0104  00C0               	movwf	runVoltageModeControl@integralMult
  6646  0105  0821               	movf	?___omul+1,w
  6647  0106  00C1               	movwf	runVoltageModeControl@integralMult+1
  6648  0107  0822               	movf	?___omul+2,w
  6649  0108  00C2               	movwf	runVoltageModeControl@integralMult+2
  6650  0109  0823               	movf	?___omul+3,w
  6651  010A  00C3               	movwf	runVoltageModeControl@integralMult+3
  6652  010B  0824               	movf	?___omul+4,w
  6653  010C  00C4               	movwf	runVoltageModeControl@integralMult+4
  6654  010D  0825               	movf	?___omul+5,w
  6655  010E  00C5               	movwf	runVoltageModeControl@integralMult+5
  6656  010F  0826               	movf	?___omul+6,w
  6657  0110  00C6               	movwf	runVoltageModeControl@integralMult+6
  6658  0111  0827               	movf	?___omul+7,w
  6659  0112  00C7               	movwf	runVoltageModeControl@integralMult+7
  6660  0113                     i1l2244:
  6661                           
  6662                           ;Controller.c: 117:    voltageModeVariables.integral = integralMult;
  6663  0113  0843               	movf	runVoltageModeControl@integralMult+3,w
  6664  0114  0021               	movlb	1	; select bank1
  6665  0115  00BB               	movwf	((_voltageModeVariables+3)^(0+128)+2)
  6666  0116  0020               	movlb	0	; select bank0
  6667  0117  0842               	movf	runVoltageModeControl@integralMult+2,w
  6668  0118  0021               	movlb	1	; select bank1
  6669  0119  00BA               	movwf	((_voltageModeVariables+2)^(0+128)+2)
  6670  011A  0020               	movlb	0	; select bank0
  6671  011B  0841               	movf	runVoltageModeControl@integralMult+1,w
  6672  011C  0021               	movlb	1	; select bank1
  6673  011D  00B9               	movwf	((_voltageModeVariables+1)^(0+128)+2)
  6674  011E  0020               	movlb	0	; select bank0
  6675  011F  0840               	movf	runVoltageModeControl@integralMult,w
  6676  0120  0021               	movlb	1	; select bank1
  6677  0121  00B8               	movwf	(_voltageModeVariables^(0+128)+2)
  6678  0122                     i1l2246:
  6679                           
  6680                           ;Controller.c: 118:    voltageModeVariables.integralOutputScaled = (voltageModeVariables
      +                          .integralOutputScaled + voltageModeVariables.integral);
  6681  0122  300E               	movlw	14
  6682  0123  3EB6               	addlw	(low (_voltageModeVariables| 0))& (0+255)
  6683  0124  0086               	movwf	6
  6684  0125  0187               	clrf	7
  6685  0126  3F40               	moviw [0]fsr1
  6686  0127  0020               	movlb	0	; select bank0
  6687  0128  00B0               	movwf	??_runVoltageModeControl
  6688  0129  3F41               	moviw [1]fsr1
  6689  012A  00B1               	movwf	??_runVoltageModeControl+1
  6690  012B  3F42               	moviw [2]fsr1
  6691  012C  00B2               	movwf	??_runVoltageModeControl+2
  6692  012D  3F43               	moviw [3]fsr1
  6693  012E  00B3               	movwf	??_runVoltageModeControl+3
  6694  012F  3F44               	moviw [4]fsr1
  6695  0130  00B4               	movwf	??_runVoltageModeControl+4
  6696  0131  3F45               	moviw [5]fsr1
  6697  0132  00B5               	movwf	??_runVoltageModeControl+5
  6698  0133  3F46               	moviw [6]fsr1
  6699  0134  00B6               	movwf	??_runVoltageModeControl+6
  6700  0135  3F47               	moviw [7]fsr1
  6701  0136  00B7               	movwf	??_runVoltageModeControl+7
  6702  0137  0021               	movlb	1	; select bank1
  6703  0138  0838               	movf	(_voltageModeVariables^(0+128)+2),w
  6704  0139  0020               	movlb	0	; select bank0
  6705  013A  00B8               	movwf	??_runVoltageModeControl+8
  6706  013B  0021               	movlb	1	; select bank1
  6707  013C  0839               	movf	((_voltageModeVariables+1)^(0+128)+2),w
  6708  013D  0020               	movlb	0	; select bank0
  6709  013E  00B9               	movwf	??_runVoltageModeControl+9
  6710  013F  0021               	movlb	1	; select bank1
  6711  0140  083A               	movf	((_voltageModeVariables+2)^(0+128)+2),w
  6712  0141  0020               	movlb	0	; select bank0
  6713  0142  00BA               	movwf	??_runVoltageModeControl+10
  6714  0143  0021               	movlb	1	; select bank1
  6715  0144  083B               	movf	((_voltageModeVariables+3)^(0+128)+2),w
  6716  0145  0020               	movlb	0	; select bank0
  6717  0146  00BB               	movwf	??_runVoltageModeControl+11
  6718  0147  3000               	movlw	0
  6719  0148  1BBB               	btfsc	??_runVoltageModeControl+11,7
  6720  0149  30FF               	movlw	255
  6721  014A  00BC               	movwf	??_runVoltageModeControl+12
  6722  014B  00BD               	movwf	??_runVoltageModeControl+13
  6723  014C  00BE               	movwf	??_runVoltageModeControl+14
  6724  014D  00BF               	movwf	??_runVoltageModeControl+15
  6725  014E  0838               	movf	??_runVoltageModeControl+8,w
  6726  014F  07B0               	addwf	??_runVoltageModeControl,f
  6727  0150  0839               	movf	??_runVoltageModeControl+9,w
  6728  0151  3DB1               	addwfc	??_runVoltageModeControl+1,f
  6729  0152  083A               	movf	??_runVoltageModeControl+10,w
  6730  0153  3DB2               	addwfc	??_runVoltageModeControl+2,f
  6731  0154  083B               	movf	??_runVoltageModeControl+11,w
  6732  0155  3DB3               	addwfc	??_runVoltageModeControl+3,f
  6733  0156  083C               	movf	??_runVoltageModeControl+12,w
  6734  0157  3DB4               	addwfc	??_runVoltageModeControl+4,f
  6735  0158  083D               	movf	??_runVoltageModeControl+13,w
  6736  0159  3DB5               	addwfc	??_runVoltageModeControl+5,f
  6737  015A  083E               	movf	??_runVoltageModeControl+14,w
  6738  015B  3DB6               	addwfc	??_runVoltageModeControl+6,f
  6739  015C  083F               	movf	??_runVoltageModeControl+15,w
  6740  015D  3DB7               	addwfc	??_runVoltageModeControl+7,f
  6741  015E  0837               	movf	??_runVoltageModeControl+7,w
  6742  015F  0021               	movlb	1	; select bank1
  6743  0160  00CB               	movwf	((_voltageModeVariables+7)^(0+128)+14)
  6744  0161  0020               	movlb	0	; select bank0
  6745  0162  0836               	movf	??_runVoltageModeControl+6,w
  6746  0163  0021               	movlb	1	; select bank1
  6747  0164  00CA               	movwf	((_voltageModeVariables+6)^(0+128)+14)
  6748  0165  0020               	movlb	0	; select bank0
  6749  0166  0835               	movf	??_runVoltageModeControl+5,w
  6750  0167  0021               	movlb	1	; select bank1
  6751  0168  00C9               	movwf	((_voltageModeVariables+5)^(0+128)+14)
  6752  0169  0020               	movlb	0	; select bank0
  6753  016A  0834               	movf	??_runVoltageModeControl+4,w
  6754  016B  0021               	movlb	1	; select bank1
  6755  016C  00C8               	movwf	((_voltageModeVariables+4)^(0+128)+14)
  6756  016D  0020               	movlb	0	; select bank0
  6757  016E  0833               	movf	??_runVoltageModeControl+3,w
  6758  016F  0021               	movlb	1	; select bank1
  6759  0170  00C7               	movwf	((_voltageModeVariables+3)^(0+128)+14)
  6760  0171  0020               	movlb	0	; select bank0
  6761  0172  0832               	movf	??_runVoltageModeControl+2,w
  6762  0173  0021               	movlb	1	; select bank1
  6763  0174  00C6               	movwf	((_voltageModeVariables+2)^(0+128)+14)
  6764  0175  0020               	movlb	0	; select bank0
  6765  0176  0831               	movf	??_runVoltageModeControl+1,w
  6766  0177  0021               	movlb	1	; select bank1
  6767  0178  00C5               	movwf	((_voltageModeVariables+1)^(0+128)+14)
  6768  0179  0020               	movlb	0	; select bank0
  6769  017A  0830               	movf	??_runVoltageModeControl,w
  6770  017B  0021               	movlb	1	; select bank1
  6771  017C  00C4               	movwf	(_voltageModeVariables^(0+128)+14)
  6772  017D                     i1l2248:
  6773                           
  6774                           ;Controller.c: 121:    if(voltageModeVariables.integralOutputScaled > (integratorScaledL
      +                          imit)){
  6775  017D  0827               	movf	(_integratorScaledLimit+7)^(0+128),w
  6776  017E  3A80               	xorlw	128
  6777  017F  0020               	movlb	0	; select bank0
  6778  0180  00B0               	movwf	??_runVoltageModeControl
  6779  0181  0021               	movlb	1	; select bank1
  6780  0182  084B               	movf	((_voltageModeVariables+7)^(0+128)+14),w
  6781  0183  3A80               	xorlw	128
  6782  0184  0020               	movlb	0	; select bank0
  6783  0185  0230               	subwf	??_runVoltageModeControl,w
  6784  0186  0021               	movlb	1	; select bank1
  6785  0187  1D03               	skipz
  6786  0188  29A3               	goto	u190_23
  6787  0189  084A               	movf	((_voltageModeVariables+6)^(0+128)+14),w
  6788  018A  0226               	subwf	(_integratorScaledLimit+6)^(0+128),w
  6789  018B  1D03               	skipz
  6790  018C  29A3               	goto	u190_23
  6791  018D  0849               	movf	((_voltageModeVariables+5)^(0+128)+14),w
  6792  018E  0225               	subwf	(_integratorScaledLimit+5)^(0+128),w
  6793  018F  1D03               	skipz
  6794  0190  29A3               	goto	u190_23
  6795  0191  0848               	movf	((_voltageModeVariables+4)^(0+128)+14),w
  6796  0192  0224               	subwf	(_integratorScaledLimit+4)^(0+128),w
  6797  0193  1D03               	skipz
  6798  0194  29A3               	goto	u190_23
  6799  0195  0847               	movf	((_voltageModeVariables+3)^(0+128)+14),w
  6800  0196  0223               	subwf	(_integratorScaledLimit+3)^(0+128),w
  6801  0197  1D03               	skipz
  6802  0198  29A3               	goto	u190_23
  6803  0199  0846               	movf	((_voltageModeVariables+2)^(0+128)+14),w
  6804  019A  0222               	subwf	(_integratorScaledLimit+2)^(0+128),w
  6805  019B  1D03               	skipz
  6806  019C  29A3               	goto	u190_23
  6807  019D  0845               	movf	((_voltageModeVariables+1)^(0+128)+14),w
  6808  019E  0221               	subwf	(_integratorScaledLimit+1)^(0+128),w
  6809  019F  1D03               	skipz
  6810  01A0  29A3               	goto	u190_23
  6811  01A1  0844               	movf	(_voltageModeVariables^(0+128)+14),w
  6812  01A2  0220               	subwf	_integratorScaledLimit^(0+128),w
  6813  01A3                     u190_23:
  6814  01A3  1803               	skipnc
  6815  01A4  29A6               	goto	u190_21
  6816  01A5  29A7               	goto	u190_20
  6817  01A6                     u190_21:
  6818  01A6  29B7               	goto	i1l2252
  6819  01A7                     u190_20:
  6820  01A7                     i1l2250:
  6821                           
  6822                           ;Controller.c: 122:        voltageModeVariables.integralOutputScaled = (integratorScaled
      +                          Limit);
  6823  01A7  0820               	movf	_integratorScaledLimit^(0+128),w
  6824  01A8  00C4               	movwf	(_voltageModeVariables^(0+128)+14)
  6825  01A9  0821               	movf	(_integratorScaledLimit+1)^(0+128),w
  6826  01AA  00C5               	movwf	((_voltageModeVariables+1)^(0+128)+14)
  6827  01AB  0822               	movf	(_integratorScaledLimit+2)^(0+128),w
  6828  01AC  00C6               	movwf	((_voltageModeVariables+2)^(0+128)+14)
  6829  01AD  0823               	movf	(_integratorScaledLimit+3)^(0+128),w
  6830  01AE  00C7               	movwf	((_voltageModeVariables+3)^(0+128)+14)
  6831  01AF  0824               	movf	(_integratorScaledLimit+4)^(0+128),w
  6832  01B0  00C8               	movwf	((_voltageModeVariables+4)^(0+128)+14)
  6833  01B1  0825               	movf	(_integratorScaledLimit+5)^(0+128),w
  6834  01B2  00C9               	movwf	((_voltageModeVariables+5)^(0+128)+14)
  6835  01B3  0826               	movf	(_integratorScaledLimit+6)^(0+128),w
  6836  01B4  00CA               	movwf	((_voltageModeVariables+6)^(0+128)+14)
  6837  01B5  0827               	movf	(_integratorScaledLimit+7)^(0+128),w
  6838  01B6  00CB               	movwf	((_voltageModeVariables+7)^(0+128)+14)
  6839  01B7                     i1l2252:
  6840                           
  6841                           ;Controller.c: 125:    if(voltageModeVariables.integralOutputScaled < 0){
  6842  01B7  300E               	movlw	14
  6843  01B8  3EB6               	addlw	(low (_voltageModeVariables| 0))& (0+255)
  6844  01B9  0086               	movwf	6
  6845  01BA  0187               	clrf	7
  6846  01BB  3F47               	moviw [7]fsr1
  6847  01BC  0020               	movlb	0	; select bank0
  6848  01BD  00B0               	movwf	??_runVoltageModeControl
  6849  01BE  1FB0               	btfss	??_runVoltageModeControl,7
  6850  01BF  29C1               	goto	u191_21
  6851  01C0  29C2               	goto	u191_20
  6852  01C1                     u191_21:
  6853  01C1  2A5F               	goto	i1l2258
  6854  01C2                     u191_20:
  6855  01C2                     i1l2254:
  6856                           
  6857                           ;Controller.c: 126:         if(abs(voltageModeVariables.integralOutputScaled) > (integra
      +                          torScaledLimit)){
  6858  01C2  0021               	movlb	1	; select bank1
  6859  01C3  0845               	movf	((_voltageModeVariables+1)^(0+128)+14),w
  6860  01C4  00F1               	movwf	abs@a+1
  6861  01C5  0844               	movf	(_voltageModeVariables^(0+128)+14),w
  6862  01C6  00F0               	movwf	abs@a
  6863  01C7  318C  242E  3180   	fcall	_abs
  6864  01CA  0870               	movf	?_abs,w
  6865  01CB  0020               	movlb	0	; select bank0
  6866  01CC  00B0               	movwf	??_runVoltageModeControl
  6867  01CD  0871               	movf	?_abs+1,w
  6868  01CE  00B1               	movwf	??_runVoltageModeControl+1
  6869  01CF  3000               	movlw	0
  6870  01D0  1BB1               	btfsc	??_runVoltageModeControl+1,7
  6871  01D1  30FF               	movlw	255
  6872  01D2  00B2               	movwf	??_runVoltageModeControl+2
  6873  01D3  00B3               	movwf	??_runVoltageModeControl+3
  6874  01D4  00B4               	movwf	??_runVoltageModeControl+4
  6875  01D5  00B5               	movwf	??_runVoltageModeControl+5
  6876  01D6  00B6               	movwf	??_runVoltageModeControl+6
  6877  01D7  00B7               	movwf	??_runVoltageModeControl+7
  6878  01D8  0021               	movlb	1	; select bank1
  6879  01D9  0827               	movf	(_integratorScaledLimit+7)^(0+128),w
  6880  01DA  3A80               	xorlw	128
  6881  01DB  0020               	movlb	0	; select bank0
  6882  01DC  00B8               	movwf	??_runVoltageModeControl+8
  6883  01DD  0837               	movf	??_runVoltageModeControl+7,w
  6884  01DE  3A80               	xorlw	128
  6885  01DF  0238               	subwf	??_runVoltageModeControl+8,w
  6886  01E0  0021               	movlb	1	; select bank1
  6887  01E1  1D03               	skipz
  6888  01E2  2A0B               	goto	u192_23
  6889  01E3  0020               	movlb	0	; select bank0
  6890  01E4  0836               	movf	??_runVoltageModeControl+6,w
  6891  01E5  0021               	movlb	1	; select bank1
  6892  01E6  0226               	subwf	(_integratorScaledLimit+6)^(0+128),w
  6893  01E7  1D03               	skipz
  6894  01E8  2A0B               	goto	u192_23
  6895  01E9  0020               	movlb	0	; select bank0
  6896  01EA  0835               	movf	??_runVoltageModeControl+5,w
  6897  01EB  0021               	movlb	1	; select bank1
  6898  01EC  0225               	subwf	(_integratorScaledLimit+5)^(0+128),w
  6899  01ED  1D03               	skipz
  6900  01EE  2A0B               	goto	u192_23
  6901  01EF  0020               	movlb	0	; select bank0
  6902  01F0  0834               	movf	??_runVoltageModeControl+4,w
  6903  01F1  0021               	movlb	1	; select bank1
  6904  01F2  0224               	subwf	(_integratorScaledLimit+4)^(0+128),w
  6905  01F3  1D03               	skipz
  6906  01F4  2A0B               	goto	u192_23
  6907  01F5  0020               	movlb	0	; select bank0
  6908  01F6  0833               	movf	??_runVoltageModeControl+3,w
  6909  01F7  0021               	movlb	1	; select bank1
  6910  01F8  0223               	subwf	(_integratorScaledLimit+3)^(0+128),w
  6911  01F9  1D03               	skipz
  6912  01FA  2A0B               	goto	u192_23
  6913  01FB  0020               	movlb	0	; select bank0
  6914  01FC  0832               	movf	??_runVoltageModeControl+2,w
  6915  01FD  0021               	movlb	1	; select bank1
  6916  01FE  0222               	subwf	(_integratorScaledLimit+2)^(0+128),w
  6917  01FF  1D03               	skipz
  6918  0200  2A0B               	goto	u192_23
  6919  0201  0020               	movlb	0	; select bank0
  6920  0202  0831               	movf	??_runVoltageModeControl+1,w
  6921  0203  0021               	movlb	1	; select bank1
  6922  0204  0221               	subwf	(_integratorScaledLimit+1)^(0+128),w
  6923  0205  1D03               	skipz
  6924  0206  2A0B               	goto	u192_23
  6925  0207  0020               	movlb	0	; select bank0
  6926  0208  0830               	movf	??_runVoltageModeControl,w
  6927  0209  0021               	movlb	1	; select bank1
  6928  020A  0220               	subwf	_integratorScaledLimit^(0+128),w
  6929  020B                     u192_23:
  6930  020B  1803               	skipnc
  6931  020C  2A0E               	goto	u192_21
  6932  020D  2A0F               	goto	u192_20
  6933  020E                     u192_21:
  6934  020E  2A5F               	goto	i1l2258
  6935  020F                     u192_20:
  6936  020F                     i1l2256:
  6937                           
  6938                           ;Controller.c: 127:                 voltageModeVariables.integralOutputScaled = (int64_t
      +                          ) (0 -(integratorScaledLimit));
  6939  020F  3000               	movlw	0
  6940  0210  0020               	movlb	0	; select bank0
  6941  0211  00B0               	movwf	??_runVoltageModeControl
  6942  0212  3000               	movlw	0
  6943  0213  00B1               	movwf	??_runVoltageModeControl+1
  6944  0214  3000               	movlw	0
  6945  0215  00B2               	movwf	??_runVoltageModeControl+2
  6946  0216  3000               	movlw	0
  6947  0217  00B3               	movwf	??_runVoltageModeControl+3
  6948  0218  3000               	movlw	0
  6949  0219  00B4               	movwf	??_runVoltageModeControl+4
  6950  021A  3000               	movlw	0
  6951  021B  00B5               	movwf	??_runVoltageModeControl+5
  6952  021C  3000               	movlw	0
  6953  021D  00B6               	movwf	??_runVoltageModeControl+6
  6954  021E  3000               	movlw	0
  6955  021F  00B7               	movwf	??_runVoltageModeControl+7
  6956  0220  0021               	movlb	1	; select bank1
  6957  0221  0820               	movf	_integratorScaledLimit^(0+128),w
  6958  0222  0020               	movlb	0	; select bank0
  6959  0223  02B0               	subwf	??_runVoltageModeControl,f
  6960  0224  0021               	movlb	1	; select bank1
  6961  0225  0821               	movf	(_integratorScaledLimit+1)^(0+128),w
  6962  0226  0020               	movlb	0	; select bank0
  6963  0227  3BB1               	subwfb	??_runVoltageModeControl+1,f
  6964  0228  0021               	movlb	1	; select bank1
  6965  0229  0822               	movf	(_integratorScaledLimit+2)^(0+128),w
  6966  022A  0020               	movlb	0	; select bank0
  6967  022B  3BB2               	subwfb	??_runVoltageModeControl+2,f
  6968  022C  0021               	movlb	1	; select bank1
  6969  022D  0823               	movf	(_integratorScaledLimit+3)^(0+128),w
  6970  022E  0020               	movlb	0	; select bank0
  6971  022F  3BB3               	subwfb	??_runVoltageModeControl+3,f
  6972  0230  0021               	movlb	1	; select bank1
  6973  0231  0824               	movf	(_integratorScaledLimit+4)^(0+128),w
  6974  0232  0020               	movlb	0	; select bank0
  6975  0233  3BB4               	subwfb	??_runVoltageModeControl+4,f
  6976  0234  0021               	movlb	1	; select bank1
  6977  0235  0825               	movf	(_integratorScaledLimit+5)^(0+128),w
  6978  0236  0020               	movlb	0	; select bank0
  6979  0237  3BB5               	subwfb	??_runVoltageModeControl+5,f
  6980  0238  0021               	movlb	1	; select bank1
  6981  0239  0826               	movf	(_integratorScaledLimit+6)^(0+128),w
  6982  023A  0020               	movlb	0	; select bank0
  6983  023B  3BB6               	subwfb	??_runVoltageModeControl+6,f
  6984  023C  0021               	movlb	1	; select bank1
  6985  023D  0827               	movf	(_integratorScaledLimit+7)^(0+128),w
  6986  023E  0020               	movlb	0	; select bank0
  6987  023F  3BB7               	subwfb	??_runVoltageModeControl+7,f
  6988  0240  0837               	movf	??_runVoltageModeControl+7,w
  6989  0241  0021               	movlb	1	; select bank1
  6990  0242  00CB               	movwf	((_voltageModeVariables+7)^(0+128)+14)
  6991  0243  0020               	movlb	0	; select bank0
  6992  0244  0836               	movf	??_runVoltageModeControl+6,w
  6993  0245  0021               	movlb	1	; select bank1
  6994  0246  00CA               	movwf	((_voltageModeVariables+6)^(0+128)+14)
  6995  0247  0020               	movlb	0	; select bank0
  6996  0248  0835               	movf	??_runVoltageModeControl+5,w
  6997  0249  0021               	movlb	1	; select bank1
  6998  024A  00C9               	movwf	((_voltageModeVariables+5)^(0+128)+14)
  6999  024B  0020               	movlb	0	; select bank0
  7000  024C  0834               	movf	??_runVoltageModeControl+4,w
  7001  024D  0021               	movlb	1	; select bank1
  7002  024E  00C8               	movwf	((_voltageModeVariables+4)^(0+128)+14)
  7003  024F  0020               	movlb	0	; select bank0
  7004  0250  0833               	movf	??_runVoltageModeControl+3,w
  7005  0251  0021               	movlb	1	; select bank1
  7006  0252  00C7               	movwf	((_voltageModeVariables+3)^(0+128)+14)
  7007  0253  0020               	movlb	0	; select bank0
  7008  0254  0832               	movf	??_runVoltageModeControl+2,w
  7009  0255  0021               	movlb	1	; select bank1
  7010  0256  00C6               	movwf	((_voltageModeVariables+2)^(0+128)+14)
  7011  0257  0020               	movlb	0	; select bank0
  7012  0258  0831               	movf	??_runVoltageModeControl+1,w
  7013  0259  0021               	movlb	1	; select bank1
  7014  025A  00C5               	movwf	((_voltageModeVariables+1)^(0+128)+14)
  7015  025B  0020               	movlb	0	; select bank0
  7016  025C  0830               	movf	??_runVoltageModeControl,w
  7017  025D  0021               	movlb	1	; select bank1
  7018  025E  00C4               	movwf	(_voltageModeVariables^(0+128)+14)
  7019  025F                     i1l2258:
  7020                           
  7021                           ;Controller.c: 132:    voltageModeVariables.integralOutput = voltageModeVariables.integr
      +                          alOutputScaled >> (16u + 0u);
  7022  025F  300E               	movlw	14
  7023  0260  3EB6               	addlw	(low (_voltageModeVariables| 0))& (0+255)
  7024  0261  0086               	movwf	6
  7025  0262  0187               	clrf	7
  7026  0263  3F40               	moviw [0]fsr1
  7027  0264  0020               	movlb	0	; select bank0
  7028  0265  00B0               	movwf	??_runVoltageModeControl
  7029  0266  3F41               	moviw [1]fsr1
  7030  0267  00B1               	movwf	??_runVoltageModeControl+1
  7031  0268  3F42               	moviw [2]fsr1
  7032  0269  00B2               	movwf	??_runVoltageModeControl+2
  7033  026A  3F43               	moviw [3]fsr1
  7034  026B  00B3               	movwf	??_runVoltageModeControl+3
  7035  026C  3F44               	moviw [4]fsr1
  7036  026D  00B4               	movwf	??_runVoltageModeControl+4
  7037  026E  3F45               	moviw [5]fsr1
  7038  026F  00B5               	movwf	??_runVoltageModeControl+5
  7039  0270  3F46               	moviw [6]fsr1
  7040  0271  00B6               	movwf	??_runVoltageModeControl+6
  7041  0272  3F47               	moviw [7]fsr1
  7042  0273  00B7               	movwf	??_runVoltageModeControl+7
  7043  0274  3010               	movlw	16
  7044  0275  00B8               	movwf	??_runVoltageModeControl+8
  7045  0276                     u193_25:
  7046  0276  0020               	movlb	0	; select bank0
  7047  0277  37B7               	asrf	??_runVoltageModeControl+7,f
  7048  0278  0CB6               	rrf	??_runVoltageModeControl+6,f
  7049  0279  0CB5               	rrf	??_runVoltageModeControl+5,f
  7050  027A  0CB4               	rrf	??_runVoltageModeControl+4,f
  7051  027B  0CB3               	rrf	??_runVoltageModeControl+3,f
  7052  027C  0CB2               	rrf	??_runVoltageModeControl+2,f
  7053  027D  0CB1               	rrf	??_runVoltageModeControl+1,f
  7054  027E  0CB0               	rrf	??_runVoltageModeControl,f
  7055  027F                     u193_20:
  7056  027F  0BB8               	decfsz	??_runVoltageModeControl+8,f
  7057  0280  2A76               	goto	u193_25
  7058  0281  0020               	movlb	0	; select bank0
  7059  0282  0833               	movf	??_runVoltageModeControl+3,w
  7060  0283  0021               	movlb	1	; select bank1
  7061  0284  00C3               	movwf	((_voltageModeVariables+3)^(0+128)+10)
  7062  0285  0020               	movlb	0	; select bank0
  7063  0286  0832               	movf	??_runVoltageModeControl+2,w
  7064  0287  0021               	movlb	1	; select bank1
  7065  0288  00C2               	movwf	((_voltageModeVariables+2)^(0+128)+10)
  7066  0289  0020               	movlb	0	; select bank0
  7067  028A  0831               	movf	??_runVoltageModeControl+1,w
  7068  028B  0021               	movlb	1	; select bank1
  7069  028C  00C1               	movwf	((_voltageModeVariables+1)^(0+128)+10)
  7070  028D  0020               	movlb	0	; select bank0
  7071  028E  0830               	movf	??_runVoltageModeControl,w
  7072  028F  0021               	movlb	1	; select bank1
  7073  0290  00C0               	movwf	(_voltageModeVariables^(0+128)+10)
  7074  0291                     i1l2260:
  7075                           
  7076                           ;Controller.c: 135:    int64_t propMult = (int32_t) (5u * ((int32_t) voltageModeVariable
      +                          s.error));
  7077  0291  0836               	movf	_voltageModeVariables^(0+128),w
  7078  0292  00F0               	movwf	___lmul@multiplier
  7079  0293  0837               	movf	(_voltageModeVariables+1)^(0+128),w
  7080  0294  00F1               	movwf	___lmul@multiplier+1
  7081  0295  0D89               	rlf	9,f
  7082  0296  3B89               	subwfb	9,f
  7083  0297  0989               	comf	9,f
  7084  0298  00F2               	movwf	___lmul@multiplier+2
  7085  0299  00F3               	movwf	___lmul@multiplier+3
  7086  029A  3000               	movlw	0
  7087  029B  00F7               	movwf	___lmul@multiplicand+3
  7088  029C  3000               	movlw	0
  7089  029D  00F6               	movwf	___lmul@multiplicand+2
  7090  029E  3000               	movlw	0
  7091  029F  00F5               	movwf	___lmul@multiplicand+1
  7092  02A0  3005               	movlw	5
  7093  02A1  00F4               	movwf	___lmul@multiplicand
  7094  02A2  318D  2518  3180   	fcall	___lmul
  7095  02A5  0870               	movf	?___lmul,w
  7096  02A6  0020               	movlb	0	; select bank0
  7097  02A7  00C8               	movwf	runVoltageModeControl@propMult
  7098  02A8  0871               	movf	?___lmul+1,w
  7099  02A9  00C9               	movwf	runVoltageModeControl@propMult+1
  7100  02AA  0872               	movf	?___lmul+2,w
  7101  02AB  00CA               	movwf	runVoltageModeControl@propMult+2
  7102  02AC  0873               	movf	?___lmul+3,w
  7103  02AD  00CB               	movwf	runVoltageModeControl@propMult+3
  7104  02AE  3000               	movlw	0
  7105  02AF  1BCB               	btfsc	runVoltageModeControl@propMult+3,7
  7106  02B0  30FF               	movlw	255
  7107  02B1  00CC               	movwf	runVoltageModeControl@propMult+4
  7108  02B2  00CD               	movwf	runVoltageModeControl@propMult+5
  7109  02B3  00CE               	movwf	runVoltageModeControl@propMult+6
  7110  02B4  00CF               	movwf	runVoltageModeControl@propMult+7
  7111  02B5                     i1l2262:
  7112                           
  7113                           ;Controller.c: 136:    voltageModeVariables.proportionalOutput = propMult >> 9u;
  7114  02B5  3048               	movlw	low runVoltageModeControl@propMult
  7115  02B6  0086               	movwf	6
  7116  02B7  3000               	movlw	high runVoltageModeControl@propMult
  7117  02B8  0087               	movwf	7
  7118  02B9  3F40               	moviw [0]fsr1
  7119  02BA  00B0               	movwf	??_runVoltageModeControl
  7120  02BB  3F41               	moviw [1]fsr1
  7121  02BC  00B1               	movwf	??_runVoltageModeControl+1
  7122  02BD  3F42               	moviw [2]fsr1
  7123  02BE  00B2               	movwf	??_runVoltageModeControl+2
  7124  02BF  3F43               	moviw [3]fsr1
  7125  02C0  00B3               	movwf	??_runVoltageModeControl+3
  7126  02C1  3F44               	moviw [4]fsr1
  7127  02C2  00B4               	movwf	??_runVoltageModeControl+4
  7128  02C3  3F45               	moviw [5]fsr1
  7129  02C4  00B5               	movwf	??_runVoltageModeControl+5
  7130  02C5  3F46               	moviw [6]fsr1
  7131  02C6  00B6               	movwf	??_runVoltageModeControl+6
  7132  02C7  3F47               	moviw [7]fsr1
  7133  02C8  00B7               	movwf	??_runVoltageModeControl+7
  7134  02C9  3009               	movlw	9
  7135  02CA  00B8               	movwf	??_runVoltageModeControl+8
  7136  02CB                     u194_25:
  7137  02CB  0020               	movlb	0	; select bank0
  7138  02CC  37B7               	asrf	??_runVoltageModeControl+7,f
  7139  02CD  0CB6               	rrf	??_runVoltageModeControl+6,f
  7140  02CE  0CB5               	rrf	??_runVoltageModeControl+5,f
  7141  02CF  0CB4               	rrf	??_runVoltageModeControl+4,f
  7142  02D0  0CB3               	rrf	??_runVoltageModeControl+3,f
  7143  02D1  0CB2               	rrf	??_runVoltageModeControl+2,f
  7144  02D2  0CB1               	rrf	??_runVoltageModeControl+1,f
  7145  02D3  0CB0               	rrf	??_runVoltageModeControl,f
  7146  02D4                     u194_20:
  7147  02D4  0BB8               	decfsz	??_runVoltageModeControl+8,f
  7148  02D5  2ACB               	goto	u194_25
  7149  02D6  0020               	movlb	0	; select bank0
  7150  02D7  0833               	movf	??_runVoltageModeControl+3,w
  7151  02D8  0021               	movlb	1	; select bank1
  7152  02D9  00BF               	movwf	((_voltageModeVariables+3)^(0+128)+6)
  7153  02DA  0020               	movlb	0	; select bank0
  7154  02DB  0832               	movf	??_runVoltageModeControl+2,w
  7155  02DC  0021               	movlb	1	; select bank1
  7156  02DD  00BE               	movwf	((_voltageModeVariables+2)^(0+128)+6)
  7157  02DE  0020               	movlb	0	; select bank0
  7158  02DF  0831               	movf	??_runVoltageModeControl+1,w
  7159  02E0  0021               	movlb	1	; select bank1
  7160  02E1  00BD               	movwf	((_voltageModeVariables+1)^(0+128)+6)
  7161  02E2  0020               	movlb	0	; select bank0
  7162  02E3  0830               	movf	??_runVoltageModeControl,w
  7163  02E4  0021               	movlb	1	; select bank1
  7164  02E5  00BC               	movwf	(_voltageModeVariables^(0+128)+6)
  7165  02E6                     i1l2264:
  7166                           
  7167                           ;Controller.c: 138:    voltageModeVariables.sumOutput = voltageModeVariables.integralOut
      +                          put + voltageModeVariables.proportionalOutput;
  7168  02E6  0840               	movf	(_voltageModeVariables^(0+128)+10),w
  7169  02E7  073C               	addwf	(_voltageModeVariables^(0+128)+6),w
  7170  02E8  0020               	movlb	0	; select bank0
  7171  02E9  00B0               	movwf	??_runVoltageModeControl
  7172  02EA  0021               	movlb	1	; select bank1
  7173  02EB  0841               	movf	((_voltageModeVariables+1)^(0+128)+10),w
  7174  02EC  3D3D               	addwfc	((_voltageModeVariables+1)^(0+128)+6),w
  7175  02ED  0020               	movlb	0	; select bank0
  7176  02EE  00B1               	movwf	??_runVoltageModeControl+1
  7177  02EF  0021               	movlb	1	; select bank1
  7178  02F0  0842               	movf	((_voltageModeVariables+2)^(0+128)+10),w
  7179  02F1  3D3E               	addwfc	((_voltageModeVariables+2)^(0+128)+6),w
  7180  02F2  0020               	movlb	0	; select bank0
  7181  02F3  00B2               	movwf	??_runVoltageModeControl+2
  7182  02F4  0021               	movlb	1	; select bank1
  7183  02F5  0843               	movf	((_voltageModeVariables+3)^(0+128)+10),w
  7184  02F6  3D3F               	addwfc	((_voltageModeVariables+3)^(0+128)+6),w
  7185  02F7  0020               	movlb	0	; select bank0
  7186  02F8  00B3               	movwf	??_runVoltageModeControl+3
  7187  02F9  0833               	movf	??_runVoltageModeControl+3,w
  7188  02FA  0021               	movlb	1	; select bank1
  7189  02FB  00CF               	movwf	((_voltageModeVariables+3)^(0+128)+22)
  7190  02FC  0020               	movlb	0	; select bank0
  7191  02FD  0832               	movf	??_runVoltageModeControl+2,w
  7192  02FE  0021               	movlb	1	; select bank1
  7193  02FF  00CE               	movwf	((_voltageModeVariables+2)^(0+128)+22)
  7194  0300  0020               	movlb	0	; select bank0
  7195  0301  0831               	movf	??_runVoltageModeControl+1,w
  7196  0302  0021               	movlb	1	; select bank1
  7197  0303  00CD               	movwf	((_voltageModeVariables+1)^(0+128)+22)
  7198  0304  0020               	movlb	0	; select bank0
  7199  0305  0830               	movf	??_runVoltageModeControl,w
  7200  0306  0021               	movlb	1	; select bank1
  7201  0307  00CC               	movwf	(_voltageModeVariables^(0+128)+22)
  7202  0308                     i1l2266:
  7203                           
  7204                           ;Controller.c: 139:    voltageModeVariables.previousError = voltageModeVariables.error;
  7205  0308  0837               	movf	(_voltageModeVariables+1)^(0+128),w
  7206  0309  00D1               	movwf	((_voltageModeVariables+1)^(0+128)+26)
  7207  030A  0836               	movf	_voltageModeVariables^(0+128),w
  7208  030B  00D0               	movwf	(_voltageModeVariables^(0+128)+26)
  7209  030C                     i1l458:
  7210  030C  0008               	return
  7211  030D                     __end_of_runVoltageModeControl:
  7212                           
  7213                           	psect	text31
  7214  0DBB                     __ptext31:	
  7215 ;; *************** function i1_readGPIO *****************
  7216 ;; Defined at:
  7217 ;;		line 79 in file "GPIO.c"
  7218 ;; Parameters:    Size  Location     Type
  7219 ;;  gpioNumber      1    wreg     const enum E2798
  7220 ;; Auto vars:     Size  Location     Type
  7221 ;;  gpioNumber      1    8[COMMON] const enum E2798
  7222 ;;  portType        1    7[COMMON] unsigned char 
  7223 ;;  portNumber      1    6[COMMON] unsigned char 
  7224 ;;  returnValueB    1    5[COMMON] unsigned char 
  7225 ;;  readB           1    4[COMMON] unsigned char 
  7226 ;;  returnValueA    1    3[COMMON] unsigned char 
  7227 ;;  readA           1    2[COMMON] unsigned char 
  7228 ;; Return value:  Size  Location     Type
  7229 ;;                  1    wreg      _Bool 
  7230 ;; Registers used:
  7231 ;;		wreg, status,2, status,0
  7232 ;; Tracked objects:
  7233 ;;		On entry : 0/0
  7234 ;;		On exit  : 0/0
  7235 ;;		Unchanged: 0/0
  7236 ;; Data sizes:     COMMON   BANK0   BANK1   BANK2   BANK3   BANK4
  7237 ;;      Params:         0       0       0       0       0       0
  7238 ;;      Locals:         7       0       0       0       0       0
  7239 ;;      Temps:          2       0       0       0       0       0
  7240 ;;      Totals:         9       0       0       0       0       0
  7241 ;;Total ram usage:        9 bytes
  7242 ;; Hardware stack levels used: 1
  7243 ;; This function calls:
  7244 ;;		Nothing
  7245 ;; This function is called by:
  7246 ;;		_runVoltageModeControl
  7247 ;;		_currentTripRead
  7248 ;; This function uses a non-reentrant model
  7249 ;;
  7250                           
  7251  0DBB                     i1_readGPIO:	
  7252                           ;psect for function i1_readGPIO
  7253                           
  7254                           
  7255                           ;incstack = 0
  7256                           ; Regs used in i1_readGPIO: [wreg+status,2+status,0]
  7257                           ;i1readGPIO@gpioNumber stored from wreg
  7258  0DBB  00F8               	movwf	i1readGPIO@gpioNumber
  7259  0DBC                     i1l2096:
  7260                           
  7261                           ;GPIO.c: 81:     uint8_t portType = 0;
  7262  0DBC  01F7               	clrf	i1readGPIO@portType
  7263  0DBD                     i1l2098:
  7264                           
  7265                           ;GPIO.c: 82:     if(gpioNumber > 7){
  7266  0DBD  3008               	movlw	8
  7267  0DBE  0278               	subwf	i1readGPIO@gpioNumber,w
  7268  0DBF  1C03               	skipc
  7269  0DC0  2DC2               	goto	u156_21
  7270  0DC1  2DC3               	goto	u156_20
  7271  0DC2                     u156_21:
  7272  0DC2  2DCB               	goto	i1l2104
  7273  0DC3                     u156_20:
  7274  0DC3                     i1l2100:
  7275                           
  7276                           ;GPIO.c: 83:         portNumber = gpioNumber - 8;
  7277  0DC3  0878               	movf	i1readGPIO@gpioNumber,w
  7278  0DC4  3EF8               	addlw	248
  7279  0DC5  00F0               	movwf	??i1_readGPIO
  7280  0DC6  0870               	movf	??i1_readGPIO,w
  7281  0DC7  00F6               	movwf	i1readGPIO@portNumber
  7282  0DC8                     i1l2102:
  7283                           
  7284                           ;GPIO.c: 84:         portType = 1;
  7285  0DC8  01F7               	clrf	i1readGPIO@portType
  7286  0DC9  0AF7               	incf	i1readGPIO@portType,f
  7287                           
  7288                           ;GPIO.c: 85:     }
  7289  0DCA  2DD0               	goto	i1l2108
  7290  0DCB                     i1l2104:
  7291                           
  7292                           ;GPIO.c: 87:         portNumber = gpioNumber;
  7293  0DCB  0878               	movf	i1readGPIO@gpioNumber,w
  7294  0DCC  00F0               	movwf	??i1_readGPIO
  7295  0DCD  0870               	movf	??i1_readGPIO,w
  7296  0DCE  00F6               	movwf	i1readGPIO@portNumber
  7297  0DCF                     i1l2106:
  7298                           
  7299                           ;GPIO.c: 88:         portType = 0;
  7300  0DCF  01F7               	clrf	i1readGPIO@portType
  7301  0DD0                     i1l2108:
  7302                           
  7303                           ;GPIO.c: 91:     if(portType == 0){
  7304  0DD0  0877               	movf	i1readGPIO@portType,w
  7305  0DD1  1D03               	btfss	3,2
  7306  0DD2  2DD4               	goto	u157_21
  7307  0DD3  2DD5               	goto	u157_20
  7308  0DD4                     u157_21:
  7309  0DD4  2DE8               	goto	i1l2120
  7310  0DD5                     u157_20:
  7311  0DD5                     i1l2110:
  7312                           
  7313                           ;GPIO.c: 92:         uint8_t readA = PORTA;
  7314  0DD5  0020               	movlb	0	; select bank0
  7315  0DD6  080C               	movf	12,w	;volatile
  7316  0DD7  00F0               	movwf	??i1_readGPIO
  7317  0DD8  0870               	movf	??i1_readGPIO,w
  7318  0DD9  00F2               	movwf	i1readGPIO@readA
  7319  0DDA                     i1l2112:
  7320                           
  7321                           ;GPIO.c: 93:         uint8_t returnValueA = ((readA >> ((uint8_t) portNumber)) & 1u);
  7322  0DDA  0872               	movf	i1readGPIO@readA,w
  7323  0DDB  00F0               	movwf	??i1_readGPIO
  7324  0DDC  0A76               	incf	i1readGPIO@portNumber,w
  7325  0DDD  2DDF               	goto	u158_24
  7326  0DDE                     u158_25:
  7327  0DDE  36F0               	lsrf	??i1_readGPIO,f
  7328  0DDF                     u158_24:
  7329  0DDF  0B89               	decfsz	9,f
  7330  0DE0  2DDE               	goto	u158_25
  7331  0DE1  0870               	movf	??i1_readGPIO,w
  7332  0DE2  3901               	andlw	1
  7333  0DE3  00F1               	movwf	??i1_readGPIO+1
  7334  0DE4  0871               	movf	??i1_readGPIO+1,w
  7335  0DE5  00F3               	movwf	i1readGPIO@returnValueA
  7336  0DE6                     i1l2114:
  7337                           
  7338                           ;GPIO.c: 94:         return returnValueA;
  7339  0DE6  0873               	movf	i1readGPIO@returnValueA,w
  7340  0DE7  2E01               	goto	i1l324
  7341  0DE8                     i1l2120:
  7342  0DE8  0377               	decf	i1readGPIO@portType,w
  7343  0DE9  1D03               	btfss	3,2
  7344  0DEA  2DEC               	goto	u159_21
  7345  0DEB  2DED               	goto	u159_20
  7346  0DEC                     u159_21:
  7347  0DEC  2E00               	goto	i1l2132
  7348  0DED                     u159_20:
  7349  0DED                     i1l2122:
  7350                           
  7351                           ;GPIO.c: 97:         uint8_t readB = PORTB;
  7352  0DED  0020               	movlb	0	; select bank0
  7353  0DEE  080D               	movf	13,w	;volatile
  7354  0DEF  00F0               	movwf	??i1_readGPIO
  7355  0DF0  0870               	movf	??i1_readGPIO,w
  7356  0DF1  00F4               	movwf	i1readGPIO@readB
  7357  0DF2                     i1l2124:
  7358                           
  7359                           ;GPIO.c: 98:         uint8_t returnValueB = ((readB >> ((uint8_t) portNumber)) & 1u);
  7360  0DF2  0874               	movf	i1readGPIO@readB,w
  7361  0DF3  00F0               	movwf	??i1_readGPIO
  7362  0DF4  0A76               	incf	i1readGPIO@portNumber,w
  7363  0DF5  2DF7               	goto	u160_24
  7364  0DF6                     u160_25:
  7365  0DF6  36F0               	lsrf	??i1_readGPIO,f
  7366  0DF7                     u160_24:
  7367  0DF7  0B89               	decfsz	9,f
  7368  0DF8  2DF6               	goto	u160_25
  7369  0DF9  0870               	movf	??i1_readGPIO,w
  7370  0DFA  3901               	andlw	1
  7371  0DFB  00F1               	movwf	??i1_readGPIO+1
  7372  0DFC  0871               	movf	??i1_readGPIO+1,w
  7373  0DFD  00F5               	movwf	i1readGPIO@returnValueB
  7374  0DFE                     i1l2126:
  7375                           
  7376                           ;GPIO.c: 99:         return returnValueB;
  7377  0DFE  0875               	movf	i1readGPIO@returnValueB,w
  7378  0DFF  2E01               	goto	i1l324
  7379  0E00                     i1l2132:
  7380  0E00  3000               	movlw	0
  7381  0E01                     i1l324:
  7382  0E01  0008               	return
  7383  0E02                     __end_ofi1_readGPIO:
  7384                           
  7385                           	psect	text32
  7386  0D80                     __ptext32:	
  7387 ;; *************** function _convertRawToMilliVolts *****************
  7388 ;; Defined at:
  7389 ;;		line 53 in file "Controller.c"
  7390 ;; Parameters:    Size  Location     Type
  7391 ;;  rawValue        2   12[COMMON] unsigned short 
  7392 ;; Auto vars:     Size  Location     Type
  7393 ;;  vsenseMult      4    5[BANK0 ] long 
  7394 ;;  returnValued    2   11[BANK0 ] short 
  7395 ;;  offsetted       2    9[BANK0 ] short 
  7396 ;; Return value:  Size  Location     Type
  7397 ;;                  2   12[COMMON] short 
  7398 ;; Registers used:
  7399 ;;		wreg, status,2, status,0, pclath, cstack
  7400 ;; Tracked objects:
  7401 ;;		On entry : 0/0
  7402 ;;		On exit  : 0/0
  7403 ;;		Unchanged: 0/0
  7404 ;; Data sizes:     COMMON   BANK0   BANK1   BANK2   BANK3   BANK4
  7405 ;;      Params:         2       0       0       0       0       0
  7406 ;;      Locals:         0       8       0       0       0       0
  7407 ;;      Temps:          0       5       0       0       0       0
  7408 ;;      Totals:         2      13       0       0       0       0
  7409 ;;Total ram usage:       15 bytes
  7410 ;; Hardware stack levels used: 1
  7411 ;; Hardware stack levels required when called: 1
  7412 ;; This function calls:
  7413 ;;		___lmul
  7414 ;; This function is called by:
  7415 ;;		_runVoltageModeControl
  7416 ;; This function uses a non-reentrant model
  7417 ;;
  7418                           
  7419  0D80                     _convertRawToMilliVolts:	
  7420                           ;psect for function _convertRawToMilliVolts
  7421                           
  7422  0D80                     i1l2044:	
  7423                           ;incstack = 0
  7424                           ; Regs used in _convertRawToMilliVolts: [wreg+status,2+status,0+pclath+cstack]
  7425                           
  7426                           
  7427                           ;Controller.c: 54:     int16_t offsetted = (int16_t)(rawValue) - 0u;
  7428  0D80  087D               	movf	convertRawToMilliVolts@rawValue+1,w
  7429  0D81  0020               	movlb	0	; select bank0
  7430  0D82  00AA               	movwf	convertRawToMilliVolts@offsetted+1
  7431  0D83  087C               	movf	convertRawToMilliVolts@rawValue,w
  7432  0D84  00A9               	movwf	convertRawToMilliVolts@offsetted
  7433  0D85                     i1l2046:
  7434                           
  7435                           ;Controller.c: 55:     int32_t vsenseMult = ((int32_t)(((int32_t) offsetted) * 6100u));
  7436  0D85  0829               	movf	convertRawToMilliVolts@offsetted,w
  7437  0D86  00F0               	movwf	___lmul@multiplier
  7438  0D87  082A               	movf	convertRawToMilliVolts@offsetted+1,w
  7439  0D88  00F1               	movwf	___lmul@multiplier+1
  7440  0D89  0D89               	rlf	9,f
  7441  0D8A  3B89               	subwfb	9,f
  7442  0D8B  0989               	comf	9,f
  7443  0D8C  00F2               	movwf	___lmul@multiplier+2
  7444  0D8D  00F3               	movwf	___lmul@multiplier+3
  7445  0D8E  3000               	movlw	0
  7446  0D8F  00F7               	movwf	___lmul@multiplicand+3
  7447  0D90  3000               	movlw	0
  7448  0D91  00F6               	movwf	___lmul@multiplicand+2
  7449  0D92  3017               	movlw	23
  7450  0D93  00F5               	movwf	___lmul@multiplicand+1
  7451  0D94  30D4               	movlw	212
  7452  0D95  00F4               	movwf	___lmul@multiplicand
  7453  0D96  318D  2518  318D   	fcall	___lmul
  7454  0D99  0873               	movf	?___lmul+3,w
  7455  0D9A  0020               	movlb	0	; select bank0
  7456  0D9B  00A8               	movwf	convertRawToMilliVolts@vsenseMult+3
  7457  0D9C  0872               	movf	?___lmul+2,w
  7458  0D9D  00A7               	movwf	convertRawToMilliVolts@vsenseMult+2
  7459  0D9E  0871               	movf	?___lmul+1,w
  7460  0D9F  00A6               	movwf	convertRawToMilliVolts@vsenseMult+1
  7461  0DA0  0870               	movf	?___lmul,w
  7462  0DA1  00A5               	movwf	convertRawToMilliVolts@vsenseMult
  7463  0DA2                     i1l2048:
  7464                           
  7465                           ;Controller.c: 56:     int16_t returnValuedV = (int16_t) (vsenseMult >> 8u);
  7466  0DA2  0825               	movf	convertRawToMilliVolts@vsenseMult,w
  7467  0DA3  00A0               	movwf	??_convertRawToMilliVolts
  7468  0DA4  0826               	movf	convertRawToMilliVolts@vsenseMult+1,w
  7469  0DA5  00A1               	movwf	??_convertRawToMilliVolts+1
  7470  0DA6  0827               	movf	convertRawToMilliVolts@vsenseMult+2,w
  7471  0DA7  00A2               	movwf	??_convertRawToMilliVolts+2
  7472  0DA8  0828               	movf	convertRawToMilliVolts@vsenseMult+3,w
  7473  0DA9  00A3               	movwf	??_convertRawToMilliVolts+3
  7474  0DAA  3008               	movlw	8
  7475  0DAB  00A4               	movwf	??_convertRawToMilliVolts+4
  7476  0DAC                     u142_25:
  7477  0DAC  37A3               	asrf	??_convertRawToMilliVolts+3,f
  7478  0DAD  0CA2               	rrf	??_convertRawToMilliVolts+2,f
  7479  0DAE  0CA1               	rrf	??_convertRawToMilliVolts+1,f
  7480  0DAF  0CA0               	rrf	??_convertRawToMilliVolts,f
  7481  0DB0                     u142_20:
  7482  0DB0  0BA4               	decfsz	??_convertRawToMilliVolts+4,f
  7483  0DB1  2DAC               	goto	u142_25
  7484  0DB2  0821               	movf	??_convertRawToMilliVolts+1,w
  7485  0DB3  00AC               	movwf	convertRawToMilliVolts@returnValuedV+1
  7486  0DB4  0820               	movf	??_convertRawToMilliVolts,w
  7487  0DB5  00AB               	movwf	convertRawToMilliVolts@returnValuedV
  7488  0DB6                     i1l2050:
  7489                           
  7490                           ;Controller.c: 57:     return returnValuedV;
  7491  0DB6  082C               	movf	convertRawToMilliVolts@returnValuedV+1,w
  7492  0DB7  00FD               	movwf	?_convertRawToMilliVolts+1
  7493  0DB8  082B               	movf	convertRawToMilliVolts@returnValuedV,w
  7494  0DB9  00FC               	movwf	?_convertRawToMilliVolts
  7495  0DBA                     i1l438:
  7496  0DBA  0008               	return
  7497  0DBB                     __end_of_convertRawToMilliVolts:
  7498                           
  7499                           	psect	text33
  7500  0D18                     __ptext33:	
  7501 ;; *************** function ___lmul *****************
  7502 ;; Defined at:
  7503 ;;		line 15 in file "C:\Program Files\Microchip\xc8\v2.36\pic\sources\c99\common\Umul32.c"
  7504 ;; Parameters:    Size  Location     Type
  7505 ;;  multiplier      4    0[COMMON] unsigned long 
  7506 ;;  multiplicand    4    4[COMMON] unsigned long 
  7507 ;; Auto vars:     Size  Location     Type
  7508 ;;  product         4    8[COMMON] unsigned long 
  7509 ;; Return value:  Size  Location     Type
  7510 ;;                  4    0[COMMON] unsigned long 
  7511 ;; Registers used:
  7512 ;;		wreg, status,2, status,0
  7513 ;; Tracked objects:
  7514 ;;		On entry : 0/0
  7515 ;;		On exit  : 0/0
  7516 ;;		Unchanged: 0/0
  7517 ;; Data sizes:     COMMON   BANK0   BANK1   BANK2   BANK3   BANK4
  7518 ;;      Params:         8       0       0       0       0       0
  7519 ;;      Locals:         4       0       0       0       0       0
  7520 ;;      Temps:          0       0       0       0       0       0
  7521 ;;      Totals:        12       0       0       0       0       0
  7522 ;;Total ram usage:       12 bytes
  7523 ;; Hardware stack levels used: 1
  7524 ;; This function calls:
  7525 ;;		Nothing
  7526 ;; This function is called by:
  7527 ;;		_runPotScaling
  7528 ;;		_convertRawToMilliVolts
  7529 ;;		_runVoltageModeControl
  7530 ;; This function uses a non-reentrant model
  7531 ;;
  7532                           
  7533  0D18                     ___lmul:	
  7534                           ;psect for function ___lmul
  7535                           
  7536  0D18                     i1l2002:	
  7537                           ;incstack = 0
  7538                           ; Regs used in ___lmul: [wreg+status,2+status,0]
  7539                           
  7540  0D18  3000               	movlw	0
  7541  0D19  00FB               	movwf	___lmul@product+3
  7542  0D1A  3000               	movlw	0
  7543  0D1B  00FA               	movwf	___lmul@product+2
  7544  0D1C  3000               	movlw	0
  7545  0D1D  00F9               	movwf	___lmul@product+1
  7546  0D1E  3000               	movlw	0
  7547  0D1F  00F8               	movwf	___lmul@product
  7548  0D20                     i1l2004:
  7549  0D20  1C70               	btfss	___lmul@multiplier,0
  7550  0D21  2D23               	goto	u129_21
  7551  0D22  2D24               	goto	u129_20
  7552  0D23                     u129_21:
  7553  0D23  2D2C               	goto	i1l2008
  7554  0D24                     u129_20:
  7555  0D24                     i1l2006:
  7556  0D24  0874               	movf	___lmul@multiplicand,w
  7557  0D25  07F8               	addwf	___lmul@product,f
  7558  0D26  0875               	movf	___lmul@multiplicand+1,w
  7559  0D27  3DF9               	addwfc	___lmul@product+1,f
  7560  0D28  0876               	movf	___lmul@multiplicand+2,w
  7561  0D29  3DFA               	addwfc	___lmul@product+2,f
  7562  0D2A  0877               	movf	___lmul@multiplicand+3,w
  7563  0D2B  3DFB               	addwfc	___lmul@product+3,f
  7564  0D2C                     i1l2008:
  7565  0D2C  3001               	movlw	1
  7566  0D2D                     u130_25:
  7567  0D2D  35F4               	lslf	___lmul@multiplicand,f
  7568  0D2E  0DF5               	rlf	___lmul@multiplicand+1,f
  7569  0D2F  0DF6               	rlf	___lmul@multiplicand+2,f
  7570  0D30  0DF7               	rlf	___lmul@multiplicand+3,f
  7571  0D31  0B89               	decfsz	9,f
  7572  0D32  2D2D               	goto	u130_25
  7573  0D33                     i1l2010:
  7574  0D33  3001               	movlw	1
  7575  0D34                     u131_25:
  7576  0D34  36F3               	lsrf	___lmul@multiplier+3,f
  7577  0D35  0CF2               	rrf	___lmul@multiplier+2,f
  7578  0D36  0CF1               	rrf	___lmul@multiplier+1,f
  7579  0D37  0CF0               	rrf	___lmul@multiplier,f
  7580  0D38  0B89               	decfsz	9,f
  7581  0D39  2D34               	goto	u131_25
  7582  0D3A  0873               	movf	___lmul@multiplier+3,w
  7583  0D3B  0472               	iorwf	___lmul@multiplier+2,w
  7584  0D3C  0471               	iorwf	___lmul@multiplier+1,w
  7585  0D3D  0470               	iorwf	___lmul@multiplier,w
  7586  0D3E  1D03               	skipz
  7587  0D3F  2D41               	goto	u132_21
  7588  0D40  2D42               	goto	u132_20
  7589  0D41                     u132_21:
  7590  0D41  2D20               	goto	i1l2004
  7591  0D42                     u132_20:
  7592  0D42                     i1l2012:
  7593  0D42  087B               	movf	___lmul@product+3,w
  7594  0D43  00F3               	movwf	?___lmul+3
  7595  0D44  087A               	movf	___lmul@product+2,w
  7596  0D45  00F2               	movwf	?___lmul+2
  7597  0D46  0879               	movf	___lmul@product+1,w
  7598  0D47  00F1               	movwf	?___lmul+1
  7599  0D48  0878               	movf	___lmul@product,w
  7600  0D49  00F0               	movwf	?___lmul
  7601  0D4A                     i1l729:
  7602  0D4A  0008               	return
  7603  0D4B                     __end_of___lmul:
  7604                           
  7605                           	psect	text34
  7606  0C2E                     __ptext34:	
  7607 ;; *************** function _abs *****************
  7608 ;; Defined at:
  7609 ;;		line 1 in file "C:\Program Files\Microchip\xc8\v2.36\pic\sources\c99\common\abs.c"
  7610 ;; Parameters:    Size  Location     Type
  7611 ;;  a               2    0[COMMON] int 
  7612 ;; Auto vars:     Size  Location     Type
  7613 ;;		None
  7614 ;; Return value:  Size  Location     Type
  7615 ;;                  2    0[COMMON] int 
  7616 ;; Registers used:
  7617 ;;		wreg, status,2, status,0
  7618 ;; Tracked objects:
  7619 ;;		On entry : 0/0
  7620 ;;		On exit  : 0/0
  7621 ;;		Unchanged: 0/0
  7622 ;; Data sizes:     COMMON   BANK0   BANK1   BANK2   BANK3   BANK4
  7623 ;;      Params:         2       0       0       0       0       0
  7624 ;;      Locals:         0       0       0       0       0       0
  7625 ;;      Temps:          2       0       0       0       0       0
  7626 ;;      Totals:         4       0       0       0       0       0
  7627 ;;Total ram usage:        4 bytes
  7628 ;; Hardware stack levels used: 1
  7629 ;; This function calls:
  7630 ;;		Nothing
  7631 ;; This function is called by:
  7632 ;;		_runVoltageModeControl
  7633 ;; This function uses a non-reentrant model
  7634 ;;
  7635                           
  7636  0C2E                     _abs:	
  7637                           ;psect for function _abs
  7638                           
  7639  0C2E                     i1l2054:	
  7640                           ;incstack = 0
  7641                           ; Regs used in _abs: [wreg+status,2+status,0]
  7642                           
  7643  0C2E  0871               	movf	abs@a+1,w
  7644  0C2F  3A80               	xorlw	128
  7645  0C30  00F2               	movwf	??_abs
  7646  0C31  3080               	movlw	128
  7647  0C32  0272               	subwf	??_abs,w
  7648  0C33  1D03               	skipz
  7649  0C34  2C37               	goto	u143_25
  7650  0C35  3001               	movlw	1
  7651  0C36  0270               	subwf	abs@a,w
  7652  0C37                     u143_25:
  7653  0C37  1803               	skipnc
  7654  0C38  2C3A               	goto	u143_21
  7655  0C39  2C3B               	goto	u143_20
  7656  0C3A                     u143_21:
  7657  0C3A  2C47               	goto	i1l1175
  7658  0C3B                     u143_20:
  7659  0C3B                     i1l2056:
  7660  0C3B  0970               	comf	abs@a,w
  7661  0C3C  00F2               	movwf	??_abs
  7662  0C3D  0971               	comf	abs@a+1,w
  7663  0C3E  00F3               	movwf	??_abs+1
  7664  0C3F  0AF2               	incf	??_abs,f
  7665  0C40  1903               	skipnz
  7666  0C41  0AF3               	incf	??_abs+1,f
  7667  0C42  0872               	movf	??_abs,w
  7668  0C43  00F0               	movwf	?_abs
  7669  0C44  0873               	movf	??_abs+1,w
  7670  0C45  00F1               	movwf	?_abs+1
  7671  0C46  2C47               	goto	i1l1178
  7672  0C47                     i1l1175:
  7673  0C47                     i1l1178:
  7674  0C47  0008               	return
  7675  0C48                     __end_of_abs:
  7676                           
  7677                           	psect	text35
  7678  0E4C                     __ptext35:	
  7679 ;; *************** function ___omul *****************
  7680 ;; Defined at:
  7681 ;;		line 91 in file "C:\Program Files\Microchip\xc8\v2.36\pic\sources\c99\common\Umul64.c"
  7682 ;; Parameters:    Size  Location     Type
  7683 ;;  multiplier      8    0[BANK0 ] unsigned long long 
  7684 ;;  multiplicand    8    8[BANK0 ] unsigned long long 
  7685 ;; Auto vars:     Size  Location     Type
  7686 ;;  product         8    1[COMMON] unsigned long long 
  7687 ;; Return value:  Size  Location     Type
  7688 ;;                  8    0[BANK0 ] unsigned long long 
  7689 ;; Registers used:
  7690 ;;		wreg, fsr1l, fsr1h, status,2, status,0
  7691 ;; Tracked objects:
  7692 ;;		On entry : 0/0
  7693 ;;		On exit  : 0/0
  7694 ;;		Unchanged: 0/0
  7695 ;; Data sizes:     COMMON   BANK0   BANK1   BANK2   BANK3   BANK4
  7696 ;;      Params:         0      16       0       0       0       0
  7697 ;;      Locals:         8       0       0       0       0       0
  7698 ;;      Temps:          1       0       0       0       0       0
  7699 ;;      Totals:         9      16       0       0       0       0
  7700 ;;Total ram usage:       25 bytes
  7701 ;; Hardware stack levels used: 1
  7702 ;; This function calls:
  7703 ;;		Nothing
  7704 ;; This function is called by:
  7705 ;;		_runVoltageModeControl
  7706 ;; This function uses a non-reentrant model
  7707 ;;
  7708                           
  7709  0E4C                     ___omul:	
  7710                           ;psect for function ___omul
  7711                           
  7712  0E4C                     i1l2058:	
  7713                           ;incstack = 0
  7714                           ; Regs used in ___omul: [wreg+fsr1l+fsr1h+status,2+status,0]
  7715                           
  7716  0E4C  3071               	movlw	low ___omul@product
  7717  0E4D  0086               	movwf	6
  7718  0E4E  3000               	movlw	high ___omul@product
  7719  0E4F  0087               	movwf	7
  7720  0E50  3008               	movlw	8
  7721  0E51  00F0               	movwf	??___omul
  7722  0E52  3000               	movlw	0
  7723  0E53                     u144_20:
  7724  0E53  001E               	movwi fsr1++
  7725  0E54  0BF0               	decfsz	??___omul,f
  7726  0E55  2E53               	goto	u144_20
  7727  0E56                     i1l2060:
  7728  0E56  0020               	movlb	0	; select bank0
  7729  0E57  1C20               	btfss	___omul@multiplier,0
  7730  0E58  2E5A               	goto	u145_21
  7731  0E59  2E5B               	goto	u145_20
  7732  0E5A                     u145_21:
  7733  0E5A  2E6B               	goto	i1l2064
  7734  0E5B                     u145_20:
  7735  0E5B                     i1l2062:
  7736  0E5B  0828               	movf	___omul@multiplicand,w
  7737  0E5C  07F1               	addwf	___omul@product,f
  7738  0E5D  0829               	movf	___omul@multiplicand+1,w
  7739  0E5E  3DF2               	addwfc	___omul@product+1,f
  7740  0E5F  082A               	movf	___omul@multiplicand+2,w
  7741  0E60  3DF3               	addwfc	___omul@product+2,f
  7742  0E61  082B               	movf	___omul@multiplicand+3,w
  7743  0E62  3DF4               	addwfc	___omul@product+3,f
  7744  0E63  082C               	movf	___omul@multiplicand+4,w
  7745  0E64  3DF5               	addwfc	___omul@product+4,f
  7746  0E65  082D               	movf	___omul@multiplicand+5,w
  7747  0E66  3DF6               	addwfc	___omul@product+5,f
  7748  0E67  082E               	movf	___omul@multiplicand+6,w
  7749  0E68  3DF7               	addwfc	___omul@product+6,f
  7750  0E69  082F               	movf	___omul@multiplicand+7,w
  7751  0E6A  3DF8               	addwfc	___omul@product+7,f
  7752  0E6B                     i1l2064:
  7753  0E6B  35A8               	lslf	___omul@multiplicand,f
  7754  0E6C  0DA9               	rlf	___omul@multiplicand+1,f
  7755  0E6D  0DAA               	rlf	___omul@multiplicand+2,f
  7756  0E6E  0DAB               	rlf	___omul@multiplicand+3,f
  7757  0E6F  0DAC               	rlf	___omul@multiplicand+4,f
  7758  0E70  0DAD               	rlf	___omul@multiplicand+5,f
  7759  0E71  0DAE               	rlf	___omul@multiplicand+6,f
  7760  0E72  0DAF               	rlf	___omul@multiplicand+7,f
  7761  0E73                     i1l2066:
  7762  0E73  36A7               	lsrf	___omul@multiplier+7,f
  7763  0E74  0CA6               	rrf	___omul@multiplier+6,f
  7764  0E75  0CA5               	rrf	___omul@multiplier+5,f
  7765  0E76  0CA4               	rrf	___omul@multiplier+4,f
  7766  0E77  0CA3               	rrf	___omul@multiplier+3,f
  7767  0E78  0CA2               	rrf	___omul@multiplier+2,f
  7768  0E79  0CA1               	rrf	___omul@multiplier+1,f
  7769  0E7A  0CA0               	rrf	___omul@multiplier,f
  7770  0E7B  0820               	movf	___omul@multiplier,w
  7771  0E7C  0421               	iorwf	___omul@multiplier+1,w
  7772  0E7D  0422               	iorwf	___omul@multiplier+2,w
  7773  0E7E  0423               	iorwf	___omul@multiplier+3,w
  7774  0E7F  0424               	iorwf	___omul@multiplier+4,w
  7775  0E80  0425               	iorwf	___omul@multiplier+5,w
  7776  0E81  0426               	iorwf	___omul@multiplier+6,w
  7777  0E82  0427               	iorwf	___omul@multiplier+7,w
  7778  0E83  1D03               	skipz
  7779  0E84  2E86               	goto	u146_21
  7780  0E85  2E87               	goto	u146_20
  7781  0E86                     u146_21:
  7782  0E86  2E56               	goto	i1l2060
  7783  0E87                     u146_20:
  7784  0E87                     i1l734:
  7785  0E87  0871               	movf	___omul@product,w
  7786  0E88  00A0               	movwf	?___omul
  7787  0E89  0872               	movf	___omul@product+1,w
  7788  0E8A  00A1               	movwf	?___omul+1
  7789  0E8B  0873               	movf	___omul@product+2,w
  7790  0E8C  00A2               	movwf	?___omul+2
  7791  0E8D  0874               	movf	___omul@product+3,w
  7792  0E8E  00A3               	movwf	?___omul+3
  7793  0E8F  0875               	movf	___omul@product+4,w
  7794  0E90  00A4               	movwf	?___omul+4
  7795  0E91  0876               	movf	___omul@product+5,w
  7796  0E92  00A5               	movwf	?___omul+5
  7797  0E93  0877               	movf	___omul@product+6,w
  7798  0E94  00A6               	movwf	?___omul+6
  7799  0E95  0878               	movf	___omul@product+7,w
  7800  0E96  00A7               	movwf	?___omul+7
  7801  0E97                     i1l735:
  7802  0E97  0008               	return
  7803  0E98                     __end_of___omul:
  7804                           
  7805                           	psect	text36
  7806  0C81                     __ptext36:	
  7807 ;; *************** function ___wmul *****************
  7808 ;; Defined at:
  7809 ;;		line 15 in file "C:\Program Files\Microchip\xc8\v2.36\pic\sources\c99\common\Umul16.c"
  7810 ;; Parameters:    Size  Location     Type
  7811 ;;  multiplier      2    0[COMMON] unsigned int 
  7812 ;;  multiplicand    2    2[COMMON] unsigned int 
  7813 ;; Auto vars:     Size  Location     Type
  7814 ;;  product         2    4[COMMON] unsigned int 
  7815 ;; Return value:  Size  Location     Type
  7816 ;;                  2    0[COMMON] unsigned int 
  7817 ;; Registers used:
  7818 ;;		wreg, status,2, status,0
  7819 ;; Tracked objects:
  7820 ;;		On entry : 0/0
  7821 ;;		On exit  : 0/0
  7822 ;;		Unchanged: 0/0
  7823 ;; Data sizes:     COMMON   BANK0   BANK1   BANK2   BANK3   BANK4
  7824 ;;      Params:         4       0       0       0       0       0
  7825 ;;      Locals:         2       0       0       0       0       0
  7826 ;;      Temps:          0       0       0       0       0       0
  7827 ;;      Totals:         6       0       0       0       0       0
  7828 ;;Total ram usage:        6 bytes
  7829 ;; Hardware stack levels used: 1
  7830 ;; This function calls:
  7831 ;;		Nothing
  7832 ;; This function is called by:
  7833 ;;		_runPotScaling
  7834 ;;		_controlRoutine
  7835 ;;		_convertRawToMilliAmps
  7836 ;; This function uses a non-reentrant model
  7837 ;;
  7838                           
  7839  0C81                     ___wmul:	
  7840                           ;psect for function ___wmul
  7841                           
  7842  0C81                     i1l2290:	
  7843                           ;incstack = 0
  7844                           ; Regs used in ___wmul: [wreg+status,2+status,0]
  7845                           
  7846  0C81  01F4               	clrf	___wmul@product
  7847  0C82  01F5               	clrf	___wmul@product+1
  7848  0C83                     i1l2292:
  7849  0C83  1C70               	btfss	___wmul@multiplier,0
  7850  0C84  2C86               	goto	u201_21
  7851  0C85  2C87               	goto	u201_20
  7852  0C86                     u201_21:
  7853  0C86  2C8B               	goto	i1l715
  7854  0C87                     u201_20:
  7855  0C87                     i1l2294:
  7856  0C87  0872               	movf	___wmul@multiplicand,w
  7857  0C88  07F4               	addwf	___wmul@product,f
  7858  0C89  0873               	movf	___wmul@multiplicand+1,w
  7859  0C8A  3DF5               	addwfc	___wmul@product+1,f
  7860  0C8B                     i1l715:
  7861  0C8B  3001               	movlw	1
  7862  0C8C                     u202_25:
  7863  0C8C  35F2               	lslf	___wmul@multiplicand,f
  7864  0C8D  0DF3               	rlf	___wmul@multiplicand+1,f
  7865  0C8E  0B89               	decfsz	9,f
  7866  0C8F  2C8C               	goto	u202_25
  7867  0C90                     i1l2296:
  7868  0C90  3001               	movlw	1
  7869  0C91                     u203_25:
  7870  0C91  36F1               	lsrf	___wmul@multiplier+1,f
  7871  0C92  0CF0               	rrf	___wmul@multiplier,f
  7872  0C93  0B89               	decfsz	9,f
  7873  0C94  2C91               	goto	u203_25
  7874  0C95                     i1l2298:
  7875  0C95  0870               	movf	___wmul@multiplier,w
  7876  0C96  0471               	iorwf	___wmul@multiplier+1,w
  7877  0C97  1D03               	btfss	3,2
  7878  0C98  2C9A               	goto	u204_21
  7879  0C99  2C9B               	goto	u204_20
  7880  0C9A                     u204_21:
  7881  0C9A  2C83               	goto	i1l2292
  7882  0C9B                     u204_20:
  7883  0C9B                     i1l2300:
  7884  0C9B  0875               	movf	___wmul@product+1,w
  7885  0C9C  00F1               	movwf	?___wmul+1
  7886  0C9D  0874               	movf	___wmul@product,w
  7887  0C9E  00F0               	movwf	?___wmul
  7888  0C9F                     i1l717:
  7889  0C9F  0008               	return
  7890  0CA0                     __end_of___wmul:
  7891                           
  7892                           	psect	text37
  7893  0F4A                     __ptext37:	
  7894 ;; *************** function ___lldiv *****************
  7895 ;; Defined at:
  7896 ;;		line 5 in file "C:\Program Files\Microchip\xc8\v2.36\pic\sources\c99\common\__lldiv.c"
  7897 ;; Parameters:    Size  Location     Type
  7898 ;;  divisor         4    6[COMMON] unsigned long 
  7899 ;;  dividend        4   10[COMMON] unsigned long 
  7900 ;; Auto vars:     Size  Location     Type
  7901 ;;  quotient        4    1[BANK0 ] unsigned long 
  7902 ;;  counter         1    5[BANK0 ] unsigned char 
  7903 ;; Return value:  Size  Location     Type
  7904 ;;                  4    6[COMMON] unsigned long 
  7905 ;; Registers used:
  7906 ;;		wreg, status,2, status,0
  7907 ;; Tracked objects:
  7908 ;;		On entry : 0/0
  7909 ;;		On exit  : 0/0
  7910 ;;		Unchanged: 0/0
  7911 ;; Data sizes:     COMMON   BANK0   BANK1   BANK2   BANK3   BANK4
  7912 ;;      Params:         8       0       0       0       0       0
  7913 ;;      Locals:         0       5       0       0       0       0
  7914 ;;      Temps:          0       1       0       0       0       0
  7915 ;;      Totals:         8       6       0       0       0       0
  7916 ;;Total ram usage:       14 bytes
  7917 ;; Hardware stack levels used: 1
  7918 ;; This function calls:
  7919 ;;		Nothing
  7920 ;; This function is called by:
  7921 ;;		_runPotScaling
  7922 ;;		_controlRoutine
  7923 ;; This function uses a non-reentrant model
  7924 ;;
  7925                           
  7926  0F4A                     ___lldiv:	
  7927                           ;psect for function ___lldiv
  7928                           
  7929  0F4A                     i1l2304:	
  7930                           ;incstack = 0
  7931                           ; Regs used in ___lldiv: [wreg+status,2+status,0]
  7932                           
  7933  0F4A  3000               	movlw	0
  7934  0F4B  0020               	movlb	0	; select bank0
  7935  0F4C  00A4               	movwf	___lldiv@quotient+3
  7936  0F4D  3000               	movlw	0
  7937  0F4E  00A3               	movwf	___lldiv@quotient+2
  7938  0F4F  3000               	movlw	0
  7939  0F50  00A2               	movwf	___lldiv@quotient+1
  7940  0F51  3000               	movlw	0
  7941  0F52  00A1               	movwf	___lldiv@quotient
  7942  0F53  0879               	movf	___lldiv@divisor+3,w
  7943  0F54  0478               	iorwf	___lldiv@divisor+2,w
  7944  0F55  0477               	iorwf	___lldiv@divisor+1,w
  7945  0F56  0476               	iorwf	___lldiv@divisor,w
  7946  0F57  1903               	skipnz
  7947  0F58  2F5A               	goto	u205_21
  7948  0F59  2F5B               	goto	u205_20
  7949  0F5A                     u205_21:
  7950  0F5A  2F9C               	goto	i1l2324
  7951  0F5B                     u205_20:
  7952  0F5B                     i1l2306:
  7953  0F5B  01A5               	clrf	___lldiv@counter
  7954  0F5C  0AA5               	incf	___lldiv@counter,f
  7955  0F5D  2F69               	goto	i1l2310
  7956  0F5E                     i1l2308:
  7957  0F5E  3001               	movlw	1
  7958  0F5F                     u206_25:
  7959  0F5F  35F6               	lslf	___lldiv@divisor,f
  7960  0F60  0DF7               	rlf	___lldiv@divisor+1,f
  7961  0F61  0DF8               	rlf	___lldiv@divisor+2,f
  7962  0F62  0DF9               	rlf	___lldiv@divisor+3,f
  7963  0F63  0B89               	decfsz	9,f
  7964  0F64  2F5F               	goto	u206_25
  7965  0F65  3001               	movlw	1
  7966  0F66  00A0               	movwf	??___lldiv
  7967  0F67  0820               	movf	??___lldiv,w
  7968  0F68  07A5               	addwf	___lldiv@counter,f
  7969  0F69                     i1l2310:
  7970  0F69  1FF9               	btfss	___lldiv@divisor+3,7
  7971  0F6A  2F6C               	goto	u207_21
  7972  0F6B  2F6D               	goto	u207_20
  7973  0F6C                     u207_21:
  7974  0F6C  2F5E               	goto	i1l2308
  7975  0F6D                     u207_20:
  7976  0F6D                     i1l2312:
  7977  0F6D  3001               	movlw	1
  7978  0F6E                     u208_25:
  7979  0F6E  35A1               	lslf	___lldiv@quotient,f
  7980  0F6F  0DA2               	rlf	___lldiv@quotient+1,f
  7981  0F70  0DA3               	rlf	___lldiv@quotient+2,f
  7982  0F71  0DA4               	rlf	___lldiv@quotient+3,f
  7983  0F72  0B89               	decfsz	9,f
  7984  0F73  2F6E               	goto	u208_25
  7985  0F74                     i1l2314:
  7986  0F74  0879               	movf	___lldiv@divisor+3,w
  7987  0F75  027D               	subwf	___lldiv@dividend+3,w
  7988  0F76  1D03               	skipz
  7989  0F77  2F82               	goto	u209_25
  7990  0F78  0878               	movf	___lldiv@divisor+2,w
  7991  0F79  027C               	subwf	___lldiv@dividend+2,w
  7992  0F7A  1D03               	skipz
  7993  0F7B  2F82               	goto	u209_25
  7994  0F7C  0877               	movf	___lldiv@divisor+1,w
  7995  0F7D  027B               	subwf	___lldiv@dividend+1,w
  7996  0F7E  1D03               	skipz
  7997  0F7F  2F82               	goto	u209_25
  7998  0F80  0876               	movf	___lldiv@divisor,w
  7999  0F81  027A               	subwf	___lldiv@dividend,w
  8000  0F82                     u209_25:
  8001  0F82  1C03               	skipc
  8002  0F83  2F85               	goto	u209_21
  8003  0F84  2F86               	goto	u209_20
  8004  0F85                     u209_21:
  8005  0F85  2F8F               	goto	i1l2320
  8006  0F86                     u209_20:
  8007  0F86                     i1l2316:
  8008  0F86  0876               	movf	___lldiv@divisor,w
  8009  0F87  02FA               	subwf	___lldiv@dividend,f
  8010  0F88  0877               	movf	___lldiv@divisor+1,w
  8011  0F89  3BFB               	subwfb	___lldiv@dividend+1,f
  8012  0F8A  0878               	movf	___lldiv@divisor+2,w
  8013  0F8B  3BFC               	subwfb	___lldiv@dividend+2,f
  8014  0F8C  0879               	movf	___lldiv@divisor+3,w
  8015  0F8D  3BFD               	subwfb	___lldiv@dividend+3,f
  8016  0F8E                     i1l2318:
  8017  0F8E  1421               	bsf	___lldiv@quotient,0
  8018  0F8F                     i1l2320:
  8019  0F8F  3001               	movlw	1
  8020  0F90                     u210_25:
  8021  0F90  36F9               	lsrf	___lldiv@divisor+3,f
  8022  0F91  0CF8               	rrf	___lldiv@divisor+2,f
  8023  0F92  0CF7               	rrf	___lldiv@divisor+1,f
  8024  0F93  0CF6               	rrf	___lldiv@divisor,f
  8025  0F94  0B89               	decfsz	9,f
  8026  0F95  2F90               	goto	u210_25
  8027  0F96                     i1l2322:
  8028  0F96  3001               	movlw	1
  8029  0F97  02A5               	subwf	___lldiv@counter,f
  8030  0F98  1D03               	btfss	3,2
  8031  0F99  2F9B               	goto	u211_21
  8032  0F9A  2F9C               	goto	u211_20
  8033  0F9B                     u211_21:
  8034  0F9B  2F6D               	goto	i1l2312
  8035  0F9C                     u211_20:
  8036  0F9C                     i1l2324:
  8037  0F9C  0824               	movf	___lldiv@quotient+3,w
  8038  0F9D  00F9               	movwf	?___lldiv+3
  8039  0F9E  0823               	movf	___lldiv@quotient+2,w
  8040  0F9F  00F8               	movwf	?___lldiv+2
  8041  0FA0  0822               	movf	___lldiv@quotient+1,w
  8042  0FA1  00F7               	movwf	?___lldiv+1
  8043  0FA2  0821               	movf	___lldiv@quotient,w
  8044  0FA3  00F6               	movwf	?___lldiv
  8045  0FA4                     i1l751:
  8046  0FA4  0008               	return
  8047  0FA5                     __end_of___lldiv:
  8048  007E                     btemp	set	126	;btemp
  8049  007E                     int$flags	set	126
  8050  007E                     wtemp0	set	126
  8051                           
  8052                           	psect	idloc
  8053                           
  8054                           ;Config register IDLOC0 @ 0x8000
  8055                           ;	unspecified, using default values
  8056  8000                     	org	32768
  8057  8000  3FFF               	dw	16383
  8058                           
  8059                           ;Config register IDLOC1 @ 0x8001
  8060                           ;	unspecified, using default values
  8061  8001                     	org	32769
  8062  8001  3FFF               	dw	16383
  8063                           
  8064                           ;Config register IDLOC2 @ 0x8002
  8065                           ;	unspecified, using default values
  8066  8002                     	org	32770
  8067  8002  3FFF               	dw	16383
  8068                           
  8069                           ;Config register IDLOC3 @ 0x8003
  8070                           ;	unspecified, using default values
  8071  8003                     	org	32771
  8072  8003  3FFF               	dw	16383
  8073                           
  8074                           	psect	config
  8075                           
  8076                           ;Config register CONFIG1 @ 0x8007
  8077                           ;	Oscillator Selection
  8078                           ;	FOSC = INTOSC, INTOSC oscillator: I/O function on CLKIN pin
  8079                           ;	Watchdog Timer Enable
  8080                           ;	WDTE = OFF, WDT disabled
  8081                           ;	Power-up Timer Enable
  8082                           ;	PWRTE = OFF, PWRT disabled
  8083                           ;	MCLR Pin Function Select
  8084                           ;	MCLRE = OFF, MCLR/VPP pin function is digital input
  8085                           ;	Flash Program Memory Code Protection
  8086                           ;	CP = OFF, Program memory code protection is disabled
  8087                           ;	Data Memory Code Protection
  8088                           ;	CPD = OFF, Data memory code protection is disabled
  8089                           ;	Brown-out Reset Enable
  8090                           ;	BOREN = ON, Brown-out Reset enabled
  8091                           ;	Clock Out Enable
  8092                           ;	CLKOUTEN = OFF, CLKOUT function is disabled. I/O or oscillator function on the CLKOUT 
      +                          pin
  8093                           ;	Internal/External Switchover
  8094                           ;	IESO = OFF, Internal/External Switchover mode is disabled
  8095                           ;	Fail-Safe Clock Monitor Enable
  8096                           ;	FCMEN = OFF, Fail-Safe Clock Monitor is disabled
  8097  8007                     	org	32775
  8098  8007  0FA4               	dw	4004
  8099                           
  8100                           ;Config register CONFIG2 @ 0x8008
  8101                           ;	Flash Memory Self-Write Protection
  8102                           ;	WRT = OFF, Write protection off
  8103                           ;	PLL Enable
  8104                           ;	PLLEN = OFF, 4x PLL disabled
  8105                           ;	Stack Overflow/Underflow Reset Enable
  8106                           ;	STVREN = OFF, Stack Overflow or Underflow will not cause a Reset
  8107                           ;	Brown-out Reset Voltage Selection
  8108                           ;	BORV = 0x1, unprogrammed default
  8109                           ;	Low-Voltage Programming Enable
  8110                           ;	LVP = OFF, High-voltage on MCLR/VPP must be used for programming
  8111  8008                     	org	32776
  8112  8008  1CFF               	dw	7423

Data Sizes:
    Strings     18
    Constant    0
    Data        0
    BSS         226
    Persistent  32
    Stack       0

Auto Spaces:
    Space          Size  Autos    Used
    COMMON           14     14      14
    BANK0            80     63      79
    BANK1            80     13      63
    BANK2            80      0      64
    BANK3            80      0      64
    BANK4            32      0      32

Pointer List with Targets:

    None.

Critical Paths under _main in COMMON

    None.

Critical Paths under _Tick490Hz in COMMON

    _runPotScaling->___lldiv
    _readFilteredVout->_readADCRaw
    _readFilteredFreqPot->_readADCRaw
    _readFilteredDutyPot->_readADCRaw
    _currentTripMonitor->_currentTripRead
    i1_currentTripReset->i1_writeGPIO
    _currentTripRead->i1_readGPIO
    _controlRoutine->___lldiv
    _runVoltageModeControl->_convertRawToMilliVolts
    _convertRawToMilliVolts->___lmul
    ___lldiv->___wmul

Critical Paths under _main in BANK0

    None.

Critical Paths under _Tick490Hz in BANK0

    _Tick490Hz->_controlRoutine
    _runPotScaling->___lldiv
    _controlRoutine->_runVoltageModeControl
    _runVoltageModeControl->___omul

Critical Paths under _main in BANK1

    _main->_readGPIO
    _setupPWM->_initialiseGPIO
    _initialisePotentiometers->_initialiseADCPin
    _initialiseCurrentSensors->_initialiseADCPin
    _initialiseCurrentSensors->_initialiseGPIO
    _currentTripReset->_writeGPIO
    _initialiseController->_initialiseADCPin
    _initialiseController->_initialiseGPIO

Critical Paths under _Tick490Hz in BANK1

    None.

Critical Paths under _main in BANK2

    None.

Critical Paths under _Tick490Hz in BANK2

    None.

Critical Paths under _main in BANK3

    None.

Critical Paths under _Tick490Hz in BANK3

    None.

Critical Paths under _main in BANK4

    None.

Critical Paths under _Tick490Hz in BANK4

    None.

Call Graph Tables:

 ---------------------------------------------------------------------------------
 (Depth) Function   	        Calls       Base Space   Used Autos Params    Refs
 ---------------------------------------------------------------------------------
 (0) _main                                                 4     0      4    5039
                                              9 BANK1      4     0      4
                _initialiseADCModule
               _initialiseController
           _initialiseCurrentSensors
                     _initialiseGPIO
           _initialisePotentiometers
                           _readGPIO
            _setupInternalOscillator
                           _setupPWM
               _setupTimer0Interrupt
          _transToCurrentModeControl
                  _transToPotControl
          _transToVoltageModeControl
 ---------------------------------------------------------------------------------
 (1) _transToVoltageModeControl                            1     1      0       0
                                              0 BANK1      1     1      0
 ---------------------------------------------------------------------------------
 (1) _transToPotControl                                    0     0      0       0
 ---------------------------------------------------------------------------------
 (1) _transToCurrentModeControl                            1     1      0       0
                                              0 BANK1      1     1      0
 ---------------------------------------------------------------------------------
 (1) _setupTimer0Interrupt                                 0     0      0       0
 ---------------------------------------------------------------------------------
 (1) _setupPWM                                             0     0      0     824
                     _initialiseGPIO
 ---------------------------------------------------------------------------------
 (1) _setupInternalOscillator                              3     3      0      22
                                              0 BANK1      3     3      0
 ---------------------------------------------------------------------------------
 (1) _readGPIO                                             9     9      0     252
                                              0 BANK1      9     9      0
 ---------------------------------------------------------------------------------
 (1) _initialisePotentiometers                             0     0      0     273
                   _initialiseADCPin
 ---------------------------------------------------------------------------------
 (1) _initialiseCurrentSensors                             0     0      0    1747
                   _currentTripReset
                   _initialiseADCPin
                     _initialiseGPIO
 ---------------------------------------------------------------------------------
 (2) _currentTripReset                                     0     0      0     650
                          _writeGPIO
 ---------------------------------------------------------------------------------
 (3) _writeGPIO                                            6     5      1     650
                                              0 BANK1      6     5      1
 ---------------------------------------------------------------------------------
 (1) _initialiseController                                 0     0      0    1097
                   _initialiseADCPin
                     _initialiseGPIO
 ---------------------------------------------------------------------------------
 (2) _initialiseGPIO                                       6     5      1     824
                                              0 BANK1      6     5      1
 ---------------------------------------------------------------------------------
 (2) _initialiseADCPin                                     6     6      0     273
                                              0 BANK1      6     6      0
 ---------------------------------------------------------------------------------
 (1) _initialiseADCModule                                  0     0      0       0
 ---------------------------------------------------------------------------------
 Estimated maximum stack depth 3
 ---------------------------------------------------------------------------------
 (Depth) Function   	        Calls       Base Space   Used Autos Params    Refs
 ---------------------------------------------------------------------------------
 (4) _Tick490Hz                                            1     1      0    9953
                                             62 BANK0      1     1      0
                     _controlRoutine
                 _currentTripMonitor
                _readFilteredDutyPot
                _readFilteredFreqPot
                     _readFilteredIL
                   _readFilteredVout
                      _runPotScaling
                _setPWMDutyandPeriod
                        i1_writeGPIO
 ---------------------------------------------------------------------------------
 (5) _setPWMDutyandPeriod                                  5     2      3     240
                                              0 COMMON     5     2      3
 ---------------------------------------------------------------------------------
 (5) _runPotScaling                                       12    12      0    2716
                                              6 BANK0     12    12      0
                            ___lldiv
                             ___lmul
                             ___wmul
 ---------------------------------------------------------------------------------
 (5) _readFilteredVout                                    12    10      2     411
                                             10 COMMON     2     0      2
                                              0 BANK0     10    10      0
                         _readADCRaw
 ---------------------------------------------------------------------------------
 (5) _readFilteredIL                                      12    10      2     182
                                              0 COMMON    12    10      2
 ---------------------------------------------------------------------------------
 (5) _readFilteredFreqPot                                 12    10      2     411
                                             10 COMMON     2     0      2
                                              0 BANK0     10    10      0
                         _readADCRaw
 ---------------------------------------------------------------------------------
 (5) _readFilteredDutyPot                                 12    10      2     411
                                             10 COMMON     2     0      2
                                              0 BANK0     10    10      0
                         _readADCRaw
 ---------------------------------------------------------------------------------
 (6) _readADCRaw                                          10     8      2     229
                                              0 COMMON    10     8      2
 ---------------------------------------------------------------------------------
 (5) _currentTripMonitor                                   1     1      0     706
                                             11 COMMON     1     1      0
                    _currentTripRead
            _transToOverCurrentFault
                 i1_currentTripReset
 ---------------------------------------------------------------------------------
 (6) i1_currentTripReset                                   0     0      0     430
                        i1_writeGPIO
 ---------------------------------------------------------------------------------
 (5) i1_writeGPIO                                          6     5      1     430
                                              0 COMMON     6     5      1
 ---------------------------------------------------------------------------------
 (6) _transToOverCurrentFault                              1     1      0       0
                                              0 COMMON     1     1      0
 ---------------------------------------------------------------------------------
 (6) _currentTripRead                                      2     2      0     276
                                              9 COMMON     2     2      0
                         i1_readGPIO
 ---------------------------------------------------------------------------------
 (5) _controlRoutine                                      12    12      0    4446
                                             50 BANK0     12    12      0
                            ___lldiv
                             ___wmul
              _runVoltageModeControl
 ---------------------------------------------------------------------------------
 (6) _runVoltageModeControl                               34    34      0    2296
                                             16 BANK0     34    34      0
                             ___lmul
                             ___omul
                                _abs
             _convertRawToMilliVolts
                         i1_readGPIO
 ---------------------------------------------------------------------------------
 (7) i1_readGPIO                                           9     9      0     252
                                              0 COMMON     9     9      0
 ---------------------------------------------------------------------------------
 (7) _convertRawToMilliVolts                              15    13      2     867
                                             12 COMMON     2     0      2
                                              0 BANK0     13    13      0
                             ___lmul
 ---------------------------------------------------------------------------------
 (6) ___lmul                                              12     4      8     700
                                              0 COMMON    12     4      8
 ---------------------------------------------------------------------------------
 (7) _abs                                                  4     2      2     142
                                              0 COMMON     4     2      2
 ---------------------------------------------------------------------------------
 (7) ___omul                                              25     9     16     244
                                              0 COMMON     9     9      0
                                              0 BANK0     16     0     16
 ---------------------------------------------------------------------------------
 (6) ___wmul                                               6     2      4    1004
                                              0 COMMON     6     2      4
 ---------------------------------------------------------------------------------
 (6) ___lldiv                                             14     6      8     922
                                              6 COMMON     8     0      8
                                              0 BANK0      6     6      0
                             ___wmul (ARG)
 ---------------------------------------------------------------------------------
 Estimated maximum stack depth 7
 ---------------------------------------------------------------------------------

 Call Graph Graphs:

 _main (ROOT)
   _initialiseADCModule
   _initialiseController
     _initialiseADCPin
     _initialiseGPIO
   _initialiseCurrentSensors
     _currentTripReset
       _writeGPIO
     _initialiseADCPin
     _initialiseGPIO
   _initialiseGPIO
   _initialisePotentiometers
     _initialiseADCPin
   _readGPIO
   _setupInternalOscillator
   _setupPWM
     _initialiseGPIO
   _setupTimer0Interrupt
   _transToCurrentModeControl
   _transToPotControl
   _transToVoltageModeControl

 _Tick490Hz (ROOT)
   _controlRoutine
     ___lldiv
       ___wmul (ARG)
     ___wmul
     _runVoltageModeControl
       ___lmul
       ___omul
       _abs
       _convertRawToMilliVolts
         ___lmul
       i1_readGPIO
   _currentTripMonitor
     _currentTripRead
       i1_readGPIO
     _transToOverCurrentFault
     i1_currentTripReset
       i1_writeGPIO
   _readFilteredDutyPot
     _readADCRaw
   _readFilteredFreqPot
     _readADCRaw
   _readFilteredIL
   _readFilteredVout
     _readADCRaw
   _runPotScaling
     ___lldiv
     ___lmul
     ___wmul
   _setPWMDutyandPeriod
   i1_writeGPIO

 Address spaces:
Name               Size   Autos  Total    Cost      Usage
BIGRAM             160      0       0       0        0.0%
EEDATA             100      0       0       0        0.0%
NULL                 0      0       0       0        0.0%
CODE                 0      0       0       0        0.0%
BITCOMMON            E      0       0       1        0.0%
BITSFR0              0      0       0       1        0.0%
SFR0                 0      0       0       1        0.0%
COMMON               E      E       E       2      100.0%
BITSFR1              0      0       0       2        0.0%
SFR1                 0      0       0       2        0.0%
BITSFR2              0      0       0       3        0.0%
SFR2                 0      0       0       3        0.0%
STACK                0      0       0       3        0.0%
BITSFR3              0      0       0       4        0.0%
SFR3                 0      0       0       4        0.0%
ABS                  0      0     13C       4        0.0%
BITBANK0            50      0       0       5        0.0%
BITSFR4              0      0       0       5        0.0%
SFR4                 0      0       0       5        0.0%
BANK0               50     3F      4F       6       98.8%
BITSFR5              0      0       0       6        0.0%
SFR5                 0      0       0       6        0.0%
BITBANK1            50      0       0       7        0.0%
BITSFR6              0      0       0       7        0.0%
SFR6                 0      0       0       7        0.0%
BANK1               50      D      3F       8       78.8%
BITSFR7              0      0       0       8        0.0%
SFR7                 0      0       0       8        0.0%
BITBANK2            50      0       0       9        0.0%
BITSFR8              0      0       0       9        0.0%
SFR8                 0      0       0       9        0.0%
BANK2               50      0      40      10       80.0%
BITSFR9              0      0       0      10        0.0%
SFR9                 0      0       0      10        0.0%
BITBANK3            50      0       0      11        0.0%
BITSFR10             0      0       0      11        0.0%
SFR10                0      0       0      11        0.0%
BANK3               50      0      40      12       80.0%
BITSFR11             0      0       0      12        0.0%
SFR11                0      0       0      12        0.0%
BITBANK4            20      0       0      13        0.0%
BITSFR12             0      0       0      13        0.0%
SFR12                0      0       0      13        0.0%
BANK4               20      0      20      14      100.0%
BITSFR13             0      0       0      14        0.0%
SFR13                0      0       0      14        0.0%
BITSFR14             0      0       0      15        0.0%
SFR14                0      0       0      15        0.0%
DATA                 0      0     13C      15        0.0%
BITSFR15             0      0       0      16        0.0%
SFR15                0      0       0      16        0.0%
BITSFR16             0      0       0      17        0.0%
SFR16                0      0       0      17        0.0%
BITSFR17             0      0       0      18        0.0%
SFR17                0      0       0      18        0.0%
BITSFR18             0      0       0      19        0.0%
SFR18                0      0       0      19        0.0%
BITSFR19             0      0       0      20        0.0%
SFR19                0      0       0      20        0.0%
BITSFR20             0      0       0      21        0.0%
SFR20                0      0       0      21        0.0%
BITSFR21             0      0       0      22        0.0%
SFR21                0      0       0      22        0.0%
BITSFR22             0      0       0      23        0.0%
SFR22                0      0       0      23        0.0%
BITSFR23             0      0       0      24        0.0%
SFR23                0      0       0      24        0.0%
BITSFR24             0      0       0      25        0.0%
SFR24                0      0       0      25        0.0%
BITSFR25             0      0       0      26        0.0%
SFR25                0      0       0      26        0.0%
BITSFR26             0      0       0      27        0.0%
SFR26                0      0       0      27        0.0%
BITSFR27             0      0       0      28        0.0%
SFR27                0      0       0      28        0.0%
BITSFR28             0      0       0      29        0.0%
SFR28                0      0       0      29        0.0%
BITSFR29             0      0       0      30        0.0%
SFR29                0      0       0      30        0.0%
BITSFR30             0      0       0      31        0.0%
SFR30                0      0       0      31        0.0%
BITSFR31             0      0       0      32        0.0%
SFR31                0      0       0      32        0.0%


Microchip Technology PIC Macro Assembler V2.36 build 20220127204148 
Symbol Table                                                                                   Tue Aug 08 16:29:38 2023

                ___wmul@multiplicand 0072                                  l118 0D7D  
                                l232 0BE5                                  l304 05FE  
                                l241 0664                                  l137 0588  
                                l236 0626                                  l324 0E4B  
                                l172 0C63                                  l318 06C4  
                                l530 0C2D                                  l428 0C80  
                                l508 0CBF                                  l356 0C13  
                                l199 0C01                                  l562 0BF2  
                                l556 0BDF                                  l559 0BF9  
                                _PR2 001B                    readFilteredVout@i 0029  
                                _abs 0C2E                                  wreg 0009  
                __end_ofi1_writeGPIO 0724                ??_setPWMDutyandPeriod 0073  
                   ??_initialiseGPIO 00D3                           i1_readGPIO 0DBB  
                               ?_abs 0070                                 l2020 066E  
                               l2030 0680                                 l2022 0673  
                               l2040 06AA                                 l2032 0685  
                               l2024 0676                                 l2016 0667  
                               l2042 06B7                                 l2034 0692  
                               l2026 067A                                 l2018 0668  
                               l2140 0592                                 l2036 06A0  
                               l2028 067B                                 l2150 05A4  
                               l2142 0597                                 l2038 06A5  
                               l2160 05D9                                 l2152 05A9  
                               l2144 059A                                 l2136 058B  
                               l2170 060E                                 l2162 05F2  
                               l2154 05C2                                 l2146 059E  
                               l2138 058C                                 l2180 0622  
                               l2172 060F                                 l2164 0601  
                               l2156 05CF                                 l2148 059F  
                               l2190 064D                                 l2182 0624  
                               l2174 0611                                 l2166 0604  
                               l2158 05D4                                 l2270 0C26  
                               l2184 062B                                 l2176 0617  
                               l2168 060A                                 l2186 0630  
                               l2178 061D                                 l2530 04CA  
                               l2610 0C51                                 l2602 0C48  
                               l2188 0648                                 l2268 0C20  
                               l2540 04E5                                 l2532 04D3  
                               l2524 04C6                                 l2620 0C5B  
                               l2612 0C53                                 l2604 0C4B  
                               l2630 0BE0                                 l2550 04FD  
                               l2542 04E6                                 l2534 04D7  
                               l2526 04C7                                 l2622 0C5C  
                               l2614 0C54                                 l2606 0C4D  
                               l2632 0CA0                                 l2640 0E04  
                               l2560 0510                                 l2552 0501  
                               l2544 04EF                                 l2536 04D8  
                               l2528 04C9                                 l2624 0C5E  
                               l2616 0C57                                 l2608 0C4F  
                               l2720 0D4B                                 l2634 0C0B  
                               l2650 0E17                                 l2642 0E05  
                               l2570 052B                                 l2562 0519  
                               l2554 0502                                 l2546 04F3  
                               l2538 04E1                                 l2618 0C59  
                               l2626 0BFA                                 l2730 0D5B  
                               l2722 0D4F                                 l2636 0C64  
                               l2652 0E18                                 l2644 0E0B  
                               l2812 0565                                 l2580 0543  
                               l2572 052C                                 l2564 051D  
                               l2556 050B                                 l2548 04F4  
                               l2628 0BFF                                 l2740 0D6D  
                               l2732 0D5E                                 l2724 0D52  
                               l2638 0C6F                                 l2670 0E48  
                               l2654 0E1D                                 l2646 0E10  
                               l2590 0554                                 l2582 0545  
                               l2574 0535                                 l2566 051E  
                               l2558 050F                                 l2742 0D76  
                               l2734 0D61                                 l2726 0D55  
                               l2656 0E23                                 l2664 0E31  
                               l2648 0E13                                 l2584 0546  
                               l2576 0539                                 l2568 0527  
                               l2680 0BF3                                 l2736 0D67  
                               l2728 0D58                                 l2666 0E36  
                               l2658 0E2F                                 l2586 054F  
                               l2578 053A                                 l2594 055D  
                               l2682 0BEC                                 l2746 0D7A  
                               l2738 0D6D                                 l2668 0E3C  
                               l2676 0E4A                                 l2588 0553  
                               l2684 0BDC                                 STR_1 07FE  
                               u1330 066E                                 u1331 066D  
                               u1404 06AF                                 u1340 0680  
                               u1405 06AE                                 u1341 067F  
                               _LATA 010C                                 u1414 06BC  
                               u1350 0685                                 _LATB 010D  
                               u1415 06BB                                 u1351 0684  
                               u2400 0E0B                                 u2401 0E0A  
                               u1610 0592                                 u2410 0E1D  
                               u1611 0591                                 u2411 0E1C  
                               u1620 05A4                                 u1380 06A5  
                               u1364 068A                                 u1621 05A3  
                               u1381 06A4                                 u1365 0689  
                               u1630 05A9                                 u1390 06AA  
                               u1374 0697                                 u2430 0E36  
                               u1631 05A8                                 u1391 06A9  
                               u1375 0696                                 u2431 0E35  
                               u1720 060A                                 u1704 05E9  
                               u2424 0E28                                 u1721 0609  
                               u1705 05E8                                 u2425 0E27  
                               u1730 0617                                 u1714 05F7  
                               u2530 0D76                                 u1731 0616  
                               u1715 05F6                                 u2531 0D75  
                               u1804 0652                                 u1740 061D  
                               u1644 05AE                                 u2444 0E41  
                               u1805 0651                                 u1741 061C  
                               u1645 05AD                                 u2445 0E40  
                               u1814 065D                                 u1750 062B  
                               u1670 05D4                                 u1654 05B9  
                               u1815 065C                                 u1751 062A  
                               u1671 05D3                                 u1655 05B8  
                               u1760 0630                                 u1680 05D9  
                               u1664 05C7                                 u1761 062F  
                               u1681 05D8                                 u1665 05C6  
                               u1790 064D                                 u1774 0635  
                               u1694 05DE                                 u1791 064C  
                               u1775 0634                                 u1695 05DD  
                               u1784 0640                                 u1785 063F  
          _transToVoltageModeControl 0BF3                      _filteredFreqPot 00AE  
                    _filteredDutyPot 00AC                                 abs@a 0070  
                               _main 0D4B                                 fsr0h 0005  
                               fsr1h 0007                                 indf0 0000  
                               fsr0l 0004                                 fsr1l 0006  
                               btemp 007E                       ?_runPotScaling 0070  
                               start 0086            ??_setupInternalOscillator 00D2  
                              ??_abs 0072                                ?_main 00DB  
                    __end_of___lldiv 0FA5                                i1l108 0084  
                              i1l250 0F35                                i1l324 0E01  
                              i1l244 0EFF                                i1l253 0F49  
                              i1l245 0F12                                i1l318 0723  
                              i1l175 0CEA                                i1l513 0D17  
                              i1l249 0F33                                i1l450 04C3  
                              i1l530 0C1F                                i1l370 07D9  
                              i1l443 04A0                                i1l363 0FFF  
                              i1l435 077E                                i1l541 07FD  
                              i1l438 0DBA                                i1l527 0EEF  
                              i1l375 03E9                                i1l449 04C3  
                              i1l377 03F8                                i1l458 030C  
                              i1l715 0C8B                                i1l717 0C9F  
                              i1l565 0C0A                                i1l734 0E87  
                              i1l751 0FA4                                i1l735 0E97  
                              i1l729 0D4A                                _PORTA 000C  
                              _PORTB 000D                                _TRISA 008C  
                              _TRISB 008D                  ___lmul@multiplicand 0074  
                        readADCRaw@i 0078                 readFilteredFreqPot@i 0029  
           readFilteredDutyPot@i_750 0028                                status 0003  
                              wtemp0 007E               initialiseGPIO@portType 00D5  
                _initialiseADCModule 0BE0                 readFilteredDutyPot@i 0029  
         initialiseADCPin@gpioNumber 00D7                      __initialization 0088  
                       __end_of_main 0D80                    ?_initialiseADCPin 0070  
              _integratorScaledLimit 00A0                          i1_writeGPIO 06C5  
                             ??_main 00DF                   ??_initialiseADCPin 00D2  
           __end_of_readFilteredVout 077F                 ?_initialiseADCModule 0070  
         ??_initialiseCurrentSensors 00D8      __end_of_setupInternalOscillator 0589  
setupInternalOscillator@selectedFreq 00D4                               _ADCON0 009D  
                             _ADCON1 009E                          ?i1_readGPIO 0070  
                             _ADRESH 009C                               _ADRESL 009B  
                             _CCPR1L 0291                               _ANSELA 018C  
                             _ANSELB 018D                               i1l2010 0D33  
                             i1l2002 0D18                               i1l2012 0D42  
                             i1l2004 0D20                               i1l2100 0DC3  
                             i1l2006 0D24                               i1l2110 0DD5  
                             i1l2102 0DC8                               i1l2008 0D2C  
                             i1l2112 0DDA                               i1l2120 0DE8  
                             i1l2104 0DCB                               i1l2200 0F05  
                             i1l2050 0DB6                               i1l2122 0DED  
                             i1l2114 0DE6                               i1l2106 0DCF  
                             i1l2210 0F1D                               i1l2202 0F0B  
                             i1l2300 0C9B                               i1l2060 0E56  
                             i1l2044 0D80                               i1l2124 0DF2  
                             i1l2132 0E00                               i1l2108 0DD0  
                             i1l2220 0F2D                               i1l2212 0F28  
                             i1l2204 0F10                               i1l2310 0F69  
                             i1l2062 0E5B                               i1l2054 0C2E  
                             i1l2046 0D85                               i1l2126 0DFE  
                             i1l2070 06C7                               i1l2222 0F39  
                             i1l2206 0F17                               i1l1175 0C47  
                             i1l2320 0F8F                               i1l2312 0F6D  
                             i1l2304 0F4A                               i1l2064 0E6B  
                             i1l2056 0C3B                               i1l2048 0DA2  
                             i1l2240 00D9                               u200_20 0D15  
                             i1l2080 06DA                               i1l2072 06CD  
                             i1l2224 0F3D                               i1l2208 0F19  
                             i1l2232 0F47                               i1l2400 0ED2  
                             u200_21 0D14                               i1l2322 0F96  
                             i1l2314 0F74                               i1l2306 0F5B  
                             i1l2066 0E73                               i1l2058 0E4C  
                             i1l1178 0C47                               i1l2250 01A7  
                             i1l2242 00E7                               i1l2090 0704  
                             i1l2082 06DF                               i1l2074 06D2  
                             i1l2330 0C19                               i1l2226 0F41  
                             i1l2218 0F29                               i1l2402 0ED6  
                             i1l2316 0F86                               i1l2308 0F5E  
                             i1l2324 0F9C                               i1l2260 0291  
                             i1l2252 01B7                               i1l2244 0113  
                             i1l2236 00B4                               i1l2092 0709  
                             i1l2084 06E4                               i1l2076 06D5  
                             i1l2068 06C6                               i1l2340 07F5  
                             i1l2332 07DA                               i1l2228 0F42  
                             i1l2500 078F                               i1l2404 0EDC  
                             i1l2420 073E                               i1l2318 0F8E  
                             i1l2262 02B5                               i1l2254 01C2  
                             i1l2246 0122                               i1l2238 00CA  
                             i1l2350 03F9                               i1l2094 0716  
                             i1l2086 06F1                               i1l2078 06D9  
                             i1l2342 07FB                               i1l2334 07E2  
                             i1l2502 0793                               i1l2430 0751  
                             i1l2422 0747                               i1l2414 0726  
                             u201_20 0C87                               i1l2096 0DBC  
                             i1l2264 02E6                               i1l2256 020F  
                             i1l2248 017D                               i1l2352 03FC  
                             i1l2280 0D15                               i1l2272 0CEB  
                             i1l2088 06FF                               i1l2328 0C14  
                             i1l2336 07ED                               i1l2192 0EF1  
                             i1l2520 07C6                               i1l2504 0799  
                             i1l2432 0761                               i1l2424 0750  
                             i1l2416 0734                               i1l2408 0724  
                             i1l2440 030D                               i1l2344 0CC0  
                             u201_21 0C86                               i1l2290 0C81  
                             i1l2098 0DBD                               i1l2266 0308  
                             i1l2258 025F                               i1l2354 0402  
                             i1l2362 043D                               i1l2282 0D16  
                             i1l2274 0D09                               i1l2338 07F1  
                             i1l2194 0EF3                               i1l2514 07AC  
                             i1l2506 07A2                               i1l2434 0765  
                             i1l2418 0738                               i1l2450 03AE  
                             i1l2442 0313                               i1l2346 0CC3  
                             i1l2292 0C83                               i1l2372 04AF  
                             i1l2364 0497                               i1l2356 0405  
                             i1l2276 0D0B                               i1l2196 0EF9  
                             i1l2460 0FA5                               i1l2516 07BC  
                             i1l2508 07AB                               i1l2436 076B  
                             i1l2452 03DB                               i1l2444 031D  
                             i1l2348 0CCE                               i1l2700 003D  
                             i1l2294 0C87                               i1l2374 04B9  
                             i1l2366 049B                               i1l2358 040A  
                             i1l2278 0D10                               i1l2286 0C02  
                             i1l2198 0EFD                               i1l2470 0FB9  
                             i1l2518 07C0                               i1l2390 0EB1  
                             i1l2454 03E5                               i1l2446 0374  
                             i1l2710 0063                               i1l2702 0045  
                             i1l2296 0C90                               i1l2368 04A4  
                             i1l2376 04BE                               i1l2288 0C06  
                             i1l2472 0FBF                               i1l2392 0EC1  
                             i1l2384 0E99                               i1l2456 03F3  
                             i1l2448 0381                               i1l2712 006E  
                             i1l2704 004A                               i1l2298 0C95  
                             i1l2482 0FD2                               i1l2474 0FC8  
                             i1l2466 0FA7                               i1l2386 0EA7  
                             i1l2378 0E98                               i1l2458 03F7  
                             i1l2714 0073                               i1l2706 004D  
                             i1l2484 0FE2                               i1l2476 0FD1  
                             i1l2468 0FB5                               i1l2492 077F  
                             i1l2388 0EAB                               i1l2708 0053  
                             i1l2716 0078                               u210_25 0F90  
                             u202_25 0C8C                               u130_25 0D2D  
                             i1l2486 0FE6                               i1l2398 0EC2  
                             i1l2718 0083                               u211_20 0F9C  
                             i1l2488 0FEC                               u211_21 0F9B  
                             i1l2498 0781                               i1l2690 0021  
                             i1l2692 0024                               u203_25 0C91  
                             u131_25 0D34                               i1l2694 0029  
                             i1l2686 0006                               u204_20 0C9B  
                             u132_20 0D42                               u220_20 04AE  
                             u212_20 07E2                               i1l2696 002F  
                             i1l2688 001B                               u204_21 0C9A  
                             u132_21 0D41                               u220_21 04AD  
                             u212_21 07E1                               i1l2698 0035  
                             u220_25 04AA                               u205_20 0F5B  
                             u221_20 04B9                               u213_20 07ED  
                             u205_21 0F5A                               u221_21 04B8  
                             u213_21 07EC                               u221_25 04B5  
                             u142_20 0DB0                               u214_20 07FB  
                             u222_20 0EB1                               u230_20 033F  
                             u214_21 07FA                               u222_21 0EB0  
                             u150_24 06E9                               u206_25 0F5F  
                             u142_25 0DAC                               u150_25 06E8  
                             u230_25 033B                               u207_20 0F6D  
                             u143_20 0C3B                               u223_20 0EDC  
                             u231_20 036E                               u215_20 0CE8  
                             u207_21 0F6C                               u143_21 0C3A  
                             u223_21 0EDB                               u215_21 0CE5  
                             u151_24 06F6                               u143_25 0C37  
                             u151_25 06F5                               u231_25 036A  
                             u144_20 0E53                               u152_20 0704  
                             u224_20 0EE9                               u232_20 03E5  
                             u152_21 0703                               u232_21 03E4  
                             u160_24 0DF7                               u216_24 0CEA  
                             u208_25 0F6E                               u160_25 0DF6  
                             u224_25 0EE5                               u232_25 03E1  
                             u209_20 0F86                               u145_20 0E5B  
                             u129_20 0D24                               u217_20 0402  
                             u153_20 0709                               u225_20 073E  
                             u233_20 03F3                               u209_21 0F85  
                             u145_21 0E5A                               u129_21 0D23  
                             u217_21 0401                               u153_21 0708  
                             u225_21 073D                               u233_21 03F2  
                             u209_25 0F82                               u233_25 03EF  
                             u146_20 0E87                               u218_20 049B  
                             u234_20 0FBF                               u226_20 076B  
                             u250_20 006B                               u146_21 0E86  
                             u218_21 049A                               u234_21 0FBE  
                             u226_21 076A                               u154_24 070E  
                             u154_25 070D                               u219_20 04A4  
                             u147_20 06CD                               u235_20 0FEC  
                             u227_20 0778                               u251_20 007F  
                             u219_21 04A3                               u147_21 06CC  
                             u235_21 0FEB                               u251_21 007D  
                             u155_24 071B                               u155_25 071A  
                             u227_25 0774                               u156_20 0DC3  
                             u148_20 06DF                               u236_20 0FF9  
                             u228_20 0313                               u252_20 0080  
                             u156_21 0DC2                               u148_21 06DE  
                             u228_21 0312                               u236_25 0FF5  
                             u157_20 0DD5                               u149_20 06E4  
                             u237_20 0799                               u229_20 031D  
                             u245_20 0021                               u157_21 0DD4  
                             u149_21 06E3                               u237_21 0798  
                             u229_21 031C                               u245_21 0020  
                             u190_20 01A7                               u182_20 0EF9  
                             u238_20 07C6                               u246_20 002F  
                             u190_21 01A6                               u182_21 0EF8  
                             u238_21 07C5                               u246_21 002E  
                             u190_23 01A3                               u158_24 0DDF  
                             u158_25 0DDE                               u159_20 0DED  
                             u191_20 01C2                               u183_20 0F05  
                             u239_20 07D3                               u247_20 004A  
                             u159_21 0DEC                               u191_21 01C1  
                             u183_21 0F04                               u247_21 0049  
                             u239_25 07CF                               u192_20 020F  
                             u184_20 0F0B                               u248_20 0053  
                             u192_21 020E                               u184_21 0F0A  
                             u248_21 0052                               u192_23 020B  
                             u193_20 027F                               u185_20 0F17  
                             u249_20 006A                               u185_21 0F16  
                             u249_21 0068                               u193_25 0276  
                             u194_20 02D4                               u194_25 02CB  
                             u186_25 0F20                               u195_20 0CF5  
                             u187_20 0F33                               u195_21 0CF3  
                             u187_21 0F32                               u196_20 0CF6  
                             u188_20 0F39                               u188_21 0F38  
                    ??_runPotScaling 0026                               u189_20 00CA  
                             u197_20 0D04                               u189_21 00C9  
                             u197_21 0D02                               u198_20 0D05  
                             u199_20 0D10                               u199_21 0D0F  
            initialiseGPIO@direction 00D2                     readGPIO@portType 00D9  
                readADCRaw@gpioValid 0077                               ___lmul 0D18  
                             ___omul 0E4C                               ___wmul 0C81  
                          ??___lldiv 0020                     __end_of_readGPIO 0E4C  
                     _controlRoutine 03F9                               _tripIL 006A  
     convertRawToMilliVolts@rawValue 007C            setPWMDutyandPeriod@period 0072  
              ??_initialiseADCModule 00D2             _initialisePotentiometers 0C0B  
         initialiseADCPin@portNumber 00D6                     __end_of_setupPWM 0C64  
                    _currentTripRead 0CEB           ?_transToCurrentModeControl 0070  
            __end_of__initialization 00B0               __end_of_controlRoutine 04C4  
                     __pcstackCOMMON 0070            initialiseADCPin@gpioValid 00D4  
              i1writeGPIO@gpioNumber 0074                        _currentILFIFO 0120  
                     _OPTION_REGbits 0095                    __end_of_Tick490Hz 0086  
              _runVoltageModeControl 00B4                           __pbssBANK0 005F  
                         __pbssBANK1 00A0                           __pbssBANK2 0120  
                         __pbssBANK3 01A0                           __pbssBANK4 0220  
                         __pmaintext 0D4B                      ?_controlRoutine 0070  
                            ?___lmul 0070                              ?___omul 0020  
                            ?___wmul 0070    __end_of_transToVoltageModeControl 0BFA  
           ??_convertRawToMilliVolts 0020                           __pintentry 0004  
                            _CCP1CON 0293                  ___omul@multiplicand 0028  
                     ___lmul@product 0078              __end_of_currentTripRead 0D18  
        __end_of_setPWMDutyandPeriod 0CEB     __end_of_initialiseCurrentSensors 0CC0  
         __end_ofi1_currentTripReset 0C20             initialiseADCPin@portType 00D5  
            _transToOverCurrentFault 0C02                   i1readGPIO@portType 0077  
              readFilteredVout@i_831 0028                i1writeGPIO@portNumber 0075  
                         _filteredIL 00B0                            ?_readGPIO 0070  
                         _readADCRaw 0EF0                  _readFilteredFreqPot 077F  
               i1readGPIO@gpioNumber 0078                  _readFilteredDutyPot 0FA5  
                          ?_setupPWM 0070                 readADCRaw@gpioNumber 0079  
           initialiseGPIO@gpioNumber 00D6                              ___lldiv 0F4A  
                       ?i1_writeGPIO 0070                 ?_readFilteredFreqPot 007A  
                            __ptext1 0BF3                              __ptext2 0BDC  
                            __ptext3 0BEC                              __ptext4 0BFA  
                            __ptext5 0C48                              __ptext6 04C4  
                            __ptext7 0E02                              __ptext8 0C0B  
                            __ptext9 0CA0                 ?_readFilteredDutyPot 007A  
       __end_of_initialiseController 0C81                            _T2CONbits 001C  
                  ?_readFilteredVout 007A                              _setDuty 0063  
              i1writeGPIO@writeValue 0070               ?_runVoltageModeControl 0070  
                            _tripIDS 006B                   ??_readFilteredVout 0020  
                       ??i1_readGPIO 0070                              clrloop0 0BE7  
               end_of_initialization 00B0      convertRawToMilliVolts@offsetted 0029  
                         ??_readGPIO 00D2                       ___omul@product 0071  
           ?_setupInternalOscillator 0070                      ___lldiv@divisor 0076  
                    ___lldiv@counter 0025                     _currentTripCount 0069  
                         ??_setupPWM 00D8                     _currentTripReset 0C20  
         ??_initialisePotentiometers 00D8                           _prevPeriod 006D  
                  writeGPIO@portType 00D5                       _readFilteredIL 0E98  
                 __end_ofi1_readGPIO 0E02                ??_readFilteredFreqPot 0020  
              ??_readFilteredDutyPot 0020                 i1readGPIO@portNumber 0076  
                   ?_currentTripRead 0070                    __end_of_writeGPIO 06C5  
          ??_transToOverCurrentFault 0070             initialiseGPIO@portNumber 00D7  
                       _filteredVout 005F          ??_transToCurrentModeControl 00D2  
                        ?_readADCRaw 0070                    _transToPotControl 0BDC  
                        _CCP1CONbits 0293                        readGPIO@readA 00D4  
                      readGPIO@readB 00D6                __end_of_runPotScaling 03F9  
                 ?_transToPotControl 0070            ?_initialiseCurrentSensors 0070  
               _voltageModeVariables 00B6               __end_of_readFilteredIL 0EF0  
                ??_transToPotControl 00D2                       __end_of___lmul 0D4B  
        __end_of_initialiseADCModule 0BE6                       __end_of___omul 0E98  
              controlRoutine@maxDuty 0058                       __end_of___wmul 0CA0  
              controlRoutine@minDuty 005A                       _clockFrequency 00A8  
                start_initialization 0088         __end_of_setupTimer0Interrupt 0C02  
                     _currentIDSFIFO 0140                          __end_of_abs 0C48  
                          _Tick490Hz 0004               _convertRawToMilliVolts 0D80  
          __end_of_transToPotControl 0BE0     convertRawToMilliVolts@vsenseMult 0025  
                   ??_controlRoutine 0052                    ___omul@multiplier 0020  
    __end_of_transToOverCurrentFault 0C0B           __end_of_currentTripMonitor 07FE  
               _initialiseController 0C64                          _APFCON0bits 011D  
                           ??___lmul 0078                             ??___omul 0070  
                           ??___wmul 0074                      ?_readFilteredIL 0070  
          _transToCurrentModeControl 0BEC                            ___latbits 0001  
                      __pcstackBANK0 0020                        __pcstackBANK1 00D2  
                         ?_Tick490Hz 0070                     _initialiseADCPin 05FF  
                       _currentState 006C                   i1_currentTripReset 0C14  
                 readGPIO@gpioNumber 00DA                ?_initialiseController 0070  
                     _initialiseGPIO 0589                      i1readGPIO@readA 0072  
                    i1readGPIO@readB 0074     __end_of_initialisePotentiometers 0C14  
                ?i1_currentTripReset 0070                             ?___lldiv 0076  
         ?_transToVoltageModeControl 0070      runVoltageModeControl@newVoltage 0050  
      runVoltageModeControl@propMult 0048              ??_runVoltageModeControl 0030  
               ??i1_currentTripReset 0076             __end_of_currentTripReset 0C2E  
    readFilteredDutyPot@sumOfSamples 0024                       ___wmul@product 0074  
             __end_of_initialiseGPIO 05FF                            clear_ram0 0BE6  
                          _setPeriod 006E                             _PIE1bits 0091  
       setPWMDutyandPeriod@dutyCycle 0070                 _setupTimer0Interrupt 0BFA  
  runVoltageModeControl@integralMult 0040                  _currentTripRead$913 007A  
                        _filteredIDS 00B2                           _ADCON0bits 009D  
                  ___wmul@multiplier 0070                   readGPIO@portNumber 00D8  
                        _freqPotFIFO 01A0                            _writeGPIO 0665  
                        ??_Tick490Hz 005E                    ___lmul@multiplier 0070  
                       ??_readADCRaw 0072               ??_initialiseController 00D8  
                    ?_initialiseGPIO 00D2         readFilteredVout@sumOfSamples 0024  
                  readADCRaw@channel 0076                ?_setupTimer0Interrupt 0070  
        __end_of_readFilteredFreqPot 07DA          __end_of_readFilteredDutyPot 1000  
               runPotScaling@maxDuty 002E                 runPotScaling@minDuty 0030  
                writeGPIO@gpioNumber 00D6  convertRawToMilliVolts@returnValuedV 002B  
                 __end_of_readADCRaw 0F4A             readFilteredFreqPot@i_754 0028  
            ?_convertRawToMilliVolts 007C                           ?_writeGPIO 00D2  
                           __ptext10 0C20                             __ptext11 0665  
                           __ptext20 0E98                             __ptext12 0C64  
                           __ptext21 077F                             __ptext13 0589  
                           __ptext30 00B4                             __ptext22 0FA5  
                           __ptext14 05FF                             __ptext31 0DBB  
                           __ptext23 0EF0                             __ptext15 0BE0  
                           __ptext32 0D80                             __ptext24 07DA  
                           __ptext33 0D18                             __ptext25 0C14  
                           __ptext17 0CC0                             __ptext34 0C2E  
                           __ptext26 06C5                             __ptext18 030D  
                           __ptext35 0E4C                             __ptext27 0C02  
                           __ptext19 0724                             __ptext36 0C81  
                           __ptext28 0CEB                             __ptext37 0F4A  
                           __ptext29 03F9            ?_initialisePotentiometers 0070  
                        _dutyPotFIFO 0220                  i1writeGPIO@portType 0073  
         readFilteredIL@sumOfSamples 0076                             _readGPIO 0E02  
                           _latestIL 0061                     ??_readFilteredIL 0072  
                      _timerSlotHalf 0067                         _PSTR1CONbits 0296  
                           _prevDuty 00B4                             _setupPWM 0C48  
                           int$flags 007E                             _slotTest 0065  
           __end_of_initialiseADCPin 0665                             main@argc 00DB  
           ?_transToOverCurrentFault 0070                             main@argv 00DD  
                           _voutFIFO 01C0      readFilteredFreqPot@sumOfSamples 0024  
                 _currentTripMonitor 07DA                     _timerSlotQuarter 0066  
     __end_of_convertRawToMilliVolts 0DBB                           _INTCONbits 000B  
                ?_currentTripMonitor 0070    __end_of_transToCurrentModeControl 0BF3  
                writeGPIO@portNumber 00D7                             intlevel1 0000  
           _initialiseCurrentSensors 0CA0                     ___lldiv@dividend 007A  
             i1readGPIO@returnValueA 0073               i1readGPIO@returnValueB 0075  
                   _readFilteredVout 0724               ??_setupTimer0Interrupt 00D2  
                         _OSCCONbits 0099          controlRoutine@setDuty_unreg 005C  
               ??_currentTripMonitor 007B                          _potSetCount 0068  
                _setPWMDutyandPeriod 0CC0              _setupInternalOscillator 04C4  
        ??_transToVoltageModeControl 00D2                        ??i1_writeGPIO 0071  
                      __pstringtext1 07FE                        __pstringtext2 0000  
                         _OPTION_REG 0095                     ___lldiv@quotient 0021  
      __end_of_runVoltageModeControl 030D                  writeGPIO@writeValue 00D2  
                        ??_writeGPIO 00D3                 ?_setPWMDutyandPeriod 0070  
                  ?_currentTripReset 0070                   ??_currentTripReset 00D8  
              readADCRaw@returnValue 0074                    ??_currentTripRead 0079  
                      _runPotScaling 030D                 readGPIO@returnValueA 00D5  
               readGPIO@returnValueB 00D7                  readFilteredIL@i_921 007A  
                    readFilteredIL@i 007B  
